(lp1
(S'hey'
I0
tp2
a(S'hello'
I0
tp3
a(S'hi'
I0
tp4
a(S"what's up"
I0
tp5
a(S'yo'
I0
tp6
a(S"how's it going?"
I0
tp7
a(S"what's new?"
I0
tp8
a(S'hey how is your day'
I0
tp9
a(S'good morning'
I0
tp10
a(S'good evening'
I0
tp11
a(S'howdy'
I0
tp12
a(S'good night'
I1
tp13
a(S'cya'
I1
tp14
a(S'goodbye'
I1
tp15
a(S'bye'
I1
tp16
a(S'later'
I1
tp17
a(S'have a good day'
I1
tp18
a(S'farewell'
I1
tp19
a(S'take care'
I1
tp20
a(S'bye bye'
I1
tp21
a(S'see you later'
I1
tp22
a(S'have a good one'
I1
tp23
a(S'so long'
I1
tp24
a(S"i'm out"
I1
tp25
a(S'bring me some'
I2
tp26
a(S'go get me some'
I2
tp27
a(S"i'd like you to bring me"
I2
tp28
a(S'get me'
I2
tp29
a(S'i want my'
I2
tp30
a(S'please get me'
I2
tp31
a(S'i need'
I2
tp32
a.