ccopy_reg
_reconstructor
p1
(ctextblob.classifiers
NaiveBayesClassifier
p2
c__builtin__
object
p3
NtRp4
(dp5
S'format_kwargs'
p6
(dp7
sS'train_features'
p8
(lp9
((dp10
Vcontains(going)
p11
I00
sVcontains('m)
p12
I00
sVcontains(this)
p13
I00
sVcontains(home)
p14
I00
sVcontains(night)
p15
I00
sVcontains(into)
p16
I00
sVcontains(me)
p17
I00
sVcontains(have)
p18
I00
sVcontains(how)
p19
I01
sVcontains(your)
p20
I00
sVcontains(today)
p21
I01
sVcontains(break)
p22
I00
sVcontains(the)
p23
I00
sVcontains(mail)
p24
I00
sVcontains(morning)
p25
I00
sVcontains(coffee)
p26
I00
sVcontains(down)
p27
I00
sVcontains(next)
p28
I00
sVcontains(bring)
p29
I00
sVcontains(deliver)
p30
I00
sVcontains(paper)
p31
I00
sVcontains(to)
p32
I00
sVcontains(my)
p33
I00
sVcontains(office)
p34
I00
sVcontains(is)
p35
I00
sVcontains(a)
p36
I00
sVcontains(you)
p37
I01
sVcontains(cup)
p38
I00
sVcontains(see)
p39
I00
sVcontains(pencil)
p40
I00
sVcontains(and)
p41
I00
sVcontains(up)
p42
I00
sVcontains(door)
p43
I00
sVcontains(some)
p44
I00
sVcontains(hey)
p45
I00
sVcontains(i)
p46
I00
sVcontains(letter)
p47
I00
sVcontains(of)
p48
I00
sVcontains(later)
p49
I00
sVcontains(it)
p50
I00
sVcontains(off)
p51
I00
sVcontains(good)
p52
I00
sVcontains(over)
p53
I00
sVcontains(hello)
p54
I01
sVcontains(get)
p55
I00
sVcontains(day)
p56
I00
sVcontains(go)
p57
I00
sVcontains(what)
p58
I00
sVcontains(are)
p59
I01
sVcontains(365)
p60
I00
sVcontains(room)
p61
I00
sVcontains('s)
p62
I00
sVcontains(drop)
p63
I00
sVcontains(hall)
p64
I00
sS'greeting'
p65
tp66
a((dp67
Vcontains(going)
p68
I00
sVcontains('m)
p69
I00
sVcontains(this)
p70
I00
sVcontains(home)
p71
I00
sVcontains(night)
p72
I00
sVcontains(into)
p73
I00
sVcontains(me)
p74
I00
sVcontains(have)
p75
I00
sVcontains(how)
p76
I00
sVcontains(your)
p77
I00
sVcontains(today)
p78
I00
sVcontains(break)
p79
I00
sVcontains(the)
p80
I00
sVcontains(mail)
p81
I00
sVcontains(morning)
p82
I00
sVcontains(coffee)
p83
I00
sVcontains(down)
p84
I00
sVcontains(next)
p85
I00
sVcontains(bring)
p86
I00
sVcontains(deliver)
p87
I00
sVcontains(paper)
p88
I00
sVcontains(to)
p89
I00
sVcontains(my)
p90
I00
sVcontains(office)
p91
I00
sVcontains(is)
p92
I00
sVcontains(a)
p93
I00
sVcontains(you)
p94
I00
sVcontains(cup)
p95
I00
sVcontains(see)
p96
I00
sVcontains(pencil)
p97
I00
sVcontains(and)
p98
I00
sVcontains(up)
p99
I01
sVcontains(door)
p100
I00
sVcontains(some)
p101
I00
sVcontains(hey)
p102
I00
sVcontains(i)
p103
I00
sVcontains(letter)
p104
I00
sVcontains(of)
p105
I00
sVcontains(later)
p106
I00
sVcontains(it)
p107
I00
sVcontains(off)
p108
I00
sVcontains(good)
p109
I00
sVcontains(over)
p110
I00
sVcontains(hello)
p111
I00
sVcontains(get)
p112
I00
sVcontains(day)
p113
I00
sVcontains(go)
p114
I00
sVcontains(what)
p115
I01
sVcontains(are)
p116
I00
sVcontains(365)
p117
I00
sVcontains(room)
p118
I00
sVcontains('s)
p119
I00
sVcontains(drop)
p120
I00
sVcontains(hall)
p121
I00
sg65
tp122
a((dp123
Vcontains(going)
p124
I01
sVcontains('m)
p125
I00
sVcontains(this)
p126
I00
sVcontains(home)
p127
I00
sVcontains(night)
p128
I00
sVcontains(into)
p129
I00
sVcontains(me)
p130
I00
sVcontains(have)
p131
I00
sVcontains(how)
p132
I01
sVcontains(your)
p133
I00
sVcontains(today)
p134
I00
sVcontains(break)
p135
I00
sVcontains(the)
p136
I00
sVcontains(mail)
p137
I00
sVcontains(morning)
p138
I00
sVcontains(coffee)
p139
I00
sVcontains(down)
p140
I00
sVcontains(next)
p141
I00
sVcontains(bring)
p142
I00
sVcontains(deliver)
p143
I00
sVcontains(paper)
p144
I00
sVcontains(to)
p145
I00
sVcontains(my)
p146
I00
sVcontains(office)
p147
I00
sVcontains(is)
p148
I00
sVcontains(a)
p149
I00
sVcontains(you)
p150
I00
sVcontains(cup)
p151
I00
sVcontains(see)
p152
I00
sVcontains(pencil)
p153
I00
sVcontains(and)
p154
I00
sVcontains(up)
p155
I00
sVcontains(door)
p156
I00
sVcontains(some)
p157
I00
sVcontains(hey)
p158
I00
sVcontains(i)
p159
I00
sVcontains(letter)
p160
I00
sVcontains(of)
p161
I00
sVcontains(later)
p162
I00
sVcontains(it)
p163
I01
sVcontains(off)
p164
I00
sVcontains(good)
p165
I00
sVcontains(over)
p166
I00
sVcontains(hello)
p167
I00
sVcontains(get)
p168
I00
sVcontains(day)
p169
I00
sVcontains(go)
p170
I00
sVcontains(what)
p171
I00
sVcontains(are)
p172
I00
sVcontains(365)
p173
I00
sVcontains(room)
p174
I00
sVcontains('s)
p175
I00
sVcontains(drop)
p176
I00
sVcontains(hall)
p177
I00
sg65
tp178
a((dp179
Vcontains(going)
p180
I00
sVcontains('m)
p181
I00
sVcontains(this)
p182
I00
sVcontains(home)
p183
I00
sVcontains(night)
p184
I00
sVcontains(into)
p185
I00
sVcontains(me)
p186
I00
sVcontains(have)
p187
I00
sVcontains(how)
p188
I01
sVcontains(your)
p189
I01
sVcontains(today)
p190
I00
sVcontains(break)
p191
I00
sVcontains(the)
p192
I00
sVcontains(mail)
p193
I00
sVcontains(morning)
p194
I00
sVcontains(coffee)
p195
I00
sVcontains(down)
p196
I00
sVcontains(next)
p197
I00
sVcontains(bring)
p198
I00
sVcontains(deliver)
p199
I00
sVcontains(paper)
p200
I00
sVcontains(to)
p201
I00
sVcontains(my)
p202
I00
sVcontains(office)
p203
I00
sVcontains(is)
p204
I01
sVcontains(a)
p205
I00
sVcontains(you)
p206
I00
sVcontains(cup)
p207
I00
sVcontains(see)
p208
I00
sVcontains(pencil)
p209
I00
sVcontains(and)
p210
I00
sVcontains(up)
p211
I00
sVcontains(door)
p212
I00
sVcontains(some)
p213
I00
sVcontains(hey)
p214
I01
sVcontains(i)
p215
I00
sVcontains(letter)
p216
I00
sVcontains(of)
p217
I00
sVcontains(later)
p218
I00
sVcontains(it)
p219
I00
sVcontains(off)
p220
I00
sVcontains(good)
p221
I00
sVcontains(over)
p222
I00
sVcontains(hello)
p223
I00
sVcontains(get)
p224
I00
sVcontains(day)
p225
I01
sVcontains(go)
p226
I00
sVcontains(what)
p227
I00
sVcontains(are)
p228
I00
sVcontains(365)
p229
I00
sVcontains(room)
p230
I00
sVcontains('s)
p231
I00
sVcontains(drop)
p232
I00
sVcontains(hall)
p233
I00
sg65
tp234
a((dp235
Vcontains(going)
p236
I00
sVcontains('m)
p237
I00
sVcontains(this)
p238
I00
sVcontains(home)
p239
I00
sVcontains(night)
p240
I00
sVcontains(into)
p241
I00
sVcontains(me)
p242
I00
sVcontains(have)
p243
I00
sVcontains(how)
p244
I00
sVcontains(your)
p245
I00
sVcontains(today)
p246
I00
sVcontains(break)
p247
I00
sVcontains(the)
p248
I00
sVcontains(mail)
p249
I00
sVcontains(morning)
p250
I01
sVcontains(coffee)
p251
I00
sVcontains(down)
p252
I00
sVcontains(next)
p253
I00
sVcontains(bring)
p254
I00
sVcontains(deliver)
p255
I00
sVcontains(paper)
p256
I00
sVcontains(to)
p257
I00
sVcontains(my)
p258
I00
sVcontains(office)
p259
I00
sVcontains(is)
p260
I00
sVcontains(a)
p261
I00
sVcontains(you)
p262
I00
sVcontains(cup)
p263
I00
sVcontains(see)
p264
I00
sVcontains(pencil)
p265
I00
sVcontains(and)
p266
I00
sVcontains(up)
p267
I00
sVcontains(door)
p268
I00
sVcontains(some)
p269
I00
sVcontains(hey)
p270
I00
sVcontains(i)
p271
I00
sVcontains(letter)
p272
I00
sVcontains(of)
p273
I00
sVcontains(later)
p274
I00
sVcontains(it)
p275
I00
sVcontains(off)
p276
I00
sVcontains(good)
p277
I01
sVcontains(over)
p278
I00
sVcontains(hello)
p279
I00
sVcontains(get)
p280
I00
sVcontains(day)
p281
I00
sVcontains(go)
p282
I00
sVcontains(what)
p283
I00
sVcontains(are)
p284
I00
sVcontains(365)
p285
I00
sVcontains(room)
p286
I00
sVcontains('s)
p287
I00
sVcontains(drop)
p288
I00
sVcontains(hall)
p289
I00
sg65
tp290
a((dp291
Vcontains(going)
p292
I00
sVcontains('m)
p293
I00
sVcontains(this)
p294
I00
sVcontains(home)
p295
I00
sVcontains(night)
p296
I01
sVcontains(into)
p297
I00
sVcontains(me)
p298
I00
sVcontains(have)
p299
I00
sVcontains(how)
p300
I00
sVcontains(your)
p301
I00
sVcontains(today)
p302
I00
sVcontains(break)
p303
I00
sVcontains(the)
p304
I00
sVcontains(mail)
p305
I00
sVcontains(morning)
p306
I00
sVcontains(coffee)
p307
I00
sVcontains(down)
p308
I00
sVcontains(next)
p309
I00
sVcontains(bring)
p310
I00
sVcontains(deliver)
p311
I00
sVcontains(paper)
p312
I00
sVcontains(to)
p313
I00
sVcontains(my)
p314
I00
sVcontains(office)
p315
I00
sVcontains(is)
p316
I00
sVcontains(a)
p317
I00
sVcontains(you)
p318
I00
sVcontains(cup)
p319
I00
sVcontains(see)
p320
I00
sVcontains(pencil)
p321
I00
sVcontains(and)
p322
I00
sVcontains(up)
p323
I00
sVcontains(door)
p324
I00
sVcontains(some)
p325
I00
sVcontains(hey)
p326
I00
sVcontains(i)
p327
I00
sVcontains(letter)
p328
I00
sVcontains(of)
p329
I00
sVcontains(later)
p330
I00
sVcontains(it)
p331
I00
sVcontains(off)
p332
I00
sVcontains(good)
p333
I01
sVcontains(over)
p334
I00
sVcontains(hello)
p335
I00
sVcontains(get)
p336
I00
sVcontains(day)
p337
I00
sVcontains(go)
p338
I00
sVcontains(what)
p339
I00
sVcontains(are)
p340
I00
sVcontains(365)
p341
I00
sVcontains(room)
p342
I00
sVcontains('s)
p343
I00
sVcontains(drop)
p344
I00
sVcontains(hall)
p345
I00
sS'exit'
p346
tp347
a((dp348
Vcontains(going)
p349
I01
sVcontains('m)
p350
I00
sVcontains(this)
p351
I00
sVcontains(home)
p352
I01
sVcontains(night)
p353
I00
sVcontains(into)
p354
I00
sVcontains(me)
p355
I00
sVcontains(have)
p356
I00
sVcontains(how)
p357
I00
sVcontains(your)
p358
I00
sVcontains(today)
p359
I00
sVcontains(break)
p360
I00
sVcontains(the)
p361
I00
sVcontains(mail)
p362
I00
sVcontains(morning)
p363
I00
sVcontains(coffee)
p364
I00
sVcontains(down)
p365
I00
sVcontains(next)
p366
I00
sVcontains(bring)
p367
I00
sVcontains(deliver)
p368
I00
sVcontains(paper)
p369
I00
sVcontains(to)
p370
I00
sVcontains(my)
p371
I00
sVcontains(office)
p372
I00
sVcontains(is)
p373
I00
sVcontains(a)
p374
I00
sVcontains(you)
p375
I00
sVcontains(cup)
p376
I00
sVcontains(see)
p377
I00
sVcontains(pencil)
p378
I00
sVcontains(and)
p379
I00
sVcontains(up)
p380
I00
sVcontains(door)
p381
I00
sVcontains(some)
p382
I00
sVcontains(hey)
p383
I00
sVcontains(i)
p384
I01
sVcontains(letter)
p385
I00
sVcontains(of)
p386
I00
sVcontains(later)
p387
I00
sVcontains(it)
p388
I00
sVcontains(off)
p389
I00
sVcontains(good)
p390
I00
sVcontains(over)
p391
I00
sVcontains(hello)
p392
I00
sVcontains(get)
p393
I00
sVcontains(day)
p394
I00
sVcontains(go)
p395
I00
sVcontains(what)
p396
I00
sVcontains(are)
p397
I00
sVcontains(365)
p398
I00
sVcontains(room)
p399
I00
sVcontains('s)
p400
I00
sVcontains(drop)
p401
I00
sVcontains(hall)
p402
I00
sg346
tp403
a((dp404
Vcontains(going)
p405
I00
sVcontains('m)
p406
I00
sVcontains(this)
p407
I00
sVcontains(home)
p408
I00
sVcontains(night)
p409
I00
sVcontains(into)
p410
I00
sVcontains(me)
p411
I00
sVcontains(have)
p412
I01
sVcontains(how)
p413
I00
sVcontains(your)
p414
I00
sVcontains(today)
p415
I00
sVcontains(break)
p416
I00
sVcontains(the)
p417
I00
sVcontains(mail)
p418
I00
sVcontains(morning)
p419
I00
sVcontains(coffee)
p420
I00
sVcontains(down)
p421
I00
sVcontains(next)
p422
I00
sVcontains(bring)
p423
I00
sVcontains(deliver)
p424
I00
sVcontains(paper)
p425
I00
sVcontains(to)
p426
I00
sVcontains(my)
p427
I00
sVcontains(office)
p428
I00
sVcontains(is)
p429
I00
sVcontains(a)
p430
I01
sVcontains(you)
p431
I00
sVcontains(cup)
p432
I00
sVcontains(see)
p433
I00
sVcontains(pencil)
p434
I00
sVcontains(and)
p435
I00
sVcontains(up)
p436
I00
sVcontains(door)
p437
I00
sVcontains(some)
p438
I00
sVcontains(hey)
p439
I00
sVcontains(i)
p440
I00
sVcontains(letter)
p441
I00
sVcontains(of)
p442
I00
sVcontains(later)
p443
I00
sVcontains(it)
p444
I00
sVcontains(off)
p445
I00
sVcontains(good)
p446
I01
sVcontains(over)
p447
I00
sVcontains(hello)
p448
I00
sVcontains(get)
p449
I00
sVcontains(day)
p450
I01
sVcontains(go)
p451
I00
sVcontains(what)
p452
I00
sVcontains(are)
p453
I00
sVcontains(365)
p454
I00
sVcontains(room)
p455
I00
sVcontains('s)
p456
I00
sVcontains(drop)
p457
I00
sVcontains(hall)
p458
I00
sg346
tp459
a((dp460
Vcontains(going)
p461
I00
sVcontains('m)
p462
I00
sVcontains(this)
p463
I00
sVcontains(home)
p464
I00
sVcontains(night)
p465
I00
sVcontains(into)
p466
I00
sVcontains(me)
p467
I00
sVcontains(have)
p468
I00
sVcontains(how)
p469
I00
sVcontains(your)
p470
I00
sVcontains(today)
p471
I00
sVcontains(break)
p472
I00
sVcontains(the)
p473
I00
sVcontains(mail)
p474
I00
sVcontains(morning)
p475
I00
sVcontains(coffee)
p476
I00
sVcontains(down)
p477
I00
sVcontains(next)
p478
I00
sVcontains(bring)
p479
I00
sVcontains(deliver)
p480
I00
sVcontains(paper)
p481
I00
sVcontains(to)
p482
I00
sVcontains(my)
p483
I00
sVcontains(office)
p484
I00
sVcontains(is)
p485
I00
sVcontains(a)
p486
I00
sVcontains(you)
p487
I01
sVcontains(cup)
p488
I00
sVcontains(see)
p489
I01
sVcontains(pencil)
p490
I00
sVcontains(and)
p491
I00
sVcontains(up)
p492
I00
sVcontains(door)
p493
I00
sVcontains(some)
p494
I00
sVcontains(hey)
p495
I00
sVcontains(i)
p496
I00
sVcontains(letter)
p497
I00
sVcontains(of)
p498
I00
sVcontains(later)
p499
I01
sVcontains(it)
p500
I00
sVcontains(off)
p501
I00
sVcontains(good)
p502
I00
sVcontains(over)
p503
I00
sVcontains(hello)
p504
I00
sVcontains(get)
p505
I00
sVcontains(day)
p506
I00
sVcontains(go)
p507
I00
sVcontains(what)
p508
I00
sVcontains(are)
p509
I00
sVcontains(365)
p510
I00
sVcontains(room)
p511
I00
sVcontains('s)
p512
I00
sVcontains(drop)
p513
I00
sVcontains(hall)
p514
I00
sg346
tp515
a((dp516
Vcontains(going)
p517
I00
sVcontains('m)
p518
I00
sVcontains(this)
p519
I00
sVcontains(home)
p520
I00
sVcontains(night)
p521
I00
sVcontains(into)
p522
I00
sVcontains(me)
p523
I01
sVcontains(have)
p524
I00
sVcontains(how)
p525
I00
sVcontains(your)
p526
I00
sVcontains(today)
p527
I00
sVcontains(break)
p528
I00
sVcontains(the)
p529
I00
sVcontains(mail)
p530
I00
sVcontains(morning)
p531
I00
sVcontains(coffee)
p532
I01
sVcontains(down)
p533
I00
sVcontains(next)
p534
I00
sVcontains(bring)
p535
I00
sVcontains(deliver)
p536
I00
sVcontains(paper)
p537
I00
sVcontains(to)
p538
I00
sVcontains(my)
p539
I00
sVcontains(office)
p540
I00
sVcontains(is)
p541
I00
sVcontains(a)
p542
I00
sVcontains(you)
p543
I00
sVcontains(cup)
p544
I00
sVcontains(see)
p545
I00
sVcontains(pencil)
p546
I00
sVcontains(and)
p547
I01
sVcontains(up)
p548
I00
sVcontains(door)
p549
I00
sVcontains(some)
p550
I01
sVcontains(hey)
p551
I00
sVcontains(i)
p552
I00
sVcontains(letter)
p553
I00
sVcontains(of)
p554
I00
sVcontains(later)
p555
I00
sVcontains(it)
p556
I00
sVcontains(off)
p557
I00
sVcontains(good)
p558
I00
sVcontains(over)
p559
I00
sVcontains(hello)
p560
I00
sVcontains(get)
p561
I01
sVcontains(day)
p562
I00
sVcontains(go)
p563
I01
sVcontains(what)
p564
I00
sVcontains(are)
p565
I00
sVcontains(365)
p566
I00
sVcontains(room)
p567
I00
sVcontains('s)
p568
I00
sVcontains(drop)
p569
I00
sVcontains(hall)
p570
I00
sS'get'
p571
tp572
a((dp573
Vcontains(going)
p574
I00
sVcontains('m)
p575
I00
sVcontains(this)
p576
I00
sVcontains(home)
p577
I00
sVcontains(night)
p578
I00
sVcontains(into)
p579
I00
sVcontains(me)
p580
I01
sVcontains(have)
p581
I00
sVcontains(how)
p582
I00
sVcontains(your)
p583
I00
sVcontains(today)
p584
I00
sVcontains(break)
p585
I00
sVcontains(the)
p586
I00
sVcontains(mail)
p587
I00
sVcontains(morning)
p588
I00
sVcontains(coffee)
p589
I00
sVcontains(down)
p590
I00
sVcontains(next)
p591
I00
sVcontains(bring)
p592
I00
sVcontains(deliver)
p593
I00
sVcontains(paper)
p594
I00
sVcontains(to)
p595
I00
sVcontains(my)
p596
I00
sVcontains(office)
p597
I00
sVcontains(is)
p598
I00
sVcontains(a)
p599
I01
sVcontains(you)
p600
I00
sVcontains(cup)
p601
I00
sVcontains(see)
p602
I00
sVcontains(pencil)
p603
I01
sVcontains(and)
p604
I01
sVcontains(up)
p605
I00
sVcontains(door)
p606
I00
sVcontains(some)
p607
I00
sVcontains(hey)
p608
I00
sVcontains(i)
p609
I00
sVcontains(letter)
p610
I00
sVcontains(of)
p611
I00
sVcontains(later)
p612
I00
sVcontains(it)
p613
I00
sVcontains(off)
p614
I00
sVcontains(good)
p615
I00
sVcontains(over)
p616
I00
sVcontains(hello)
p617
I00
sVcontains(get)
p618
I01
sVcontains(day)
p619
I00
sVcontains(go)
p620
I01
sVcontains(what)
p621
I00
sVcontains(are)
p622
I00
sVcontains(365)
p623
I00
sVcontains(room)
p624
I00
sVcontains('s)
p625
I00
sVcontains(drop)
p626
I00
sVcontains(hall)
p627
I00
sg571
tp628
a((dp629
Vcontains(going)
p630
I00
sVcontains('m)
p631
I00
sVcontains(this)
p632
I00
sVcontains(home)
p633
I00
sVcontains(night)
p634
I00
sVcontains(into)
p635
I00
sVcontains(me)
p636
I00
sVcontains(have)
p637
I00
sVcontains(how)
p638
I00
sVcontains(your)
p639
I00
sVcontains(today)
p640
I00
sVcontains(break)
p641
I01
sVcontains(the)
p642
I01
sVcontains(mail)
p643
I00
sVcontains(morning)
p644
I00
sVcontains(coffee)
p645
I01
sVcontains(down)
p646
I00
sVcontains(next)
p647
I00
sVcontains(bring)
p648
I00
sVcontains(deliver)
p649
I00
sVcontains(paper)
p650
I00
sVcontains(to)
p651
I01
sVcontains(my)
p652
I01
sVcontains(office)
p653
I00
sVcontains(is)
p654
I00
sVcontains(a)
p655
I00
sVcontains(you)
p656
I00
sVcontains(cup)
p657
I00
sVcontains(see)
p658
I00
sVcontains(pencil)
p659
I00
sVcontains(and)
p660
I01
sVcontains(up)
p661
I00
sVcontains(door)
p662
I00
sVcontains(some)
p663
I00
sVcontains(hey)
p664
I00
sVcontains(i)
p665
I00
sVcontains(letter)
p666
I00
sVcontains(of)
p667
I00
sVcontains(later)
p668
I00
sVcontains(it)
p669
I00
sVcontains(off)
p670
I00
sVcontains(good)
p671
I00
sVcontains(over)
p672
I00
sVcontains(hello)
p673
I00
sVcontains(get)
p674
I01
sVcontains(day)
p675
I00
sVcontains(go)
p676
I01
sVcontains(what)
p677
I00
sVcontains(are)
p678
I00
sVcontains(365)
p679
I00
sVcontains(room)
p680
I01
sVcontains('s)
p681
I00
sVcontains(drop)
p682
I00
sVcontains(hall)
p683
I00
sg571
tp684
a((dp685
Vcontains(going)
p686
I00
sVcontains('m)
p687
I00
sVcontains(this)
p688
I01
sVcontains(home)
p689
I00
sVcontains(night)
p690
I00
sVcontains(into)
p691
I00
sVcontains(me)
p692
I00
sVcontains(have)
p693
I00
sVcontains(how)
p694
I00
sVcontains(your)
p695
I00
sVcontains(today)
p696
I00
sVcontains(break)
p697
I00
sVcontains(the)
p698
I01
sVcontains(mail)
p699
I01
sVcontains(morning)
p700
I00
sVcontains(coffee)
p701
I00
sVcontains(down)
p702
I01
sVcontains(next)
p703
I00
sVcontains(bring)
p704
I00
sVcontains(deliver)
p705
I01
sVcontains(paper)
p706
I00
sVcontains(to)
p707
I01
sVcontains(my)
p708
I00
sVcontains(office)
p709
I00
sVcontains(is)
p710
I00
sVcontains(a)
p711
I00
sVcontains(you)
p712
I00
sVcontains(cup)
p713
I00
sVcontains(see)
p714
I00
sVcontains(pencil)
p715
I00
sVcontains(and)
p716
I01
sVcontains(up)
p717
I00
sVcontains(door)
p718
I00
sVcontains(some)
p719
I00
sVcontains(hey)
p720
I00
sVcontains(i)
p721
I00
sVcontains(letter)
p722
I00
sVcontains(of)
p723
I00
sVcontains(later)
p724
I00
sVcontains(it)
p725
I00
sVcontains(off)
p726
I00
sVcontains(good)
p727
I00
sVcontains(over)
p728
I00
sVcontains(hello)
p729
I00
sVcontains(get)
p730
I00
sVcontains(day)
p731
I00
sVcontains(go)
p732
I01
sVcontains(what)
p733
I00
sVcontains(are)
p734
I00
sVcontains(365)
p735
I00
sVcontains(room)
p736
I01
sVcontains('s)
p737
I00
sVcontains(drop)
p738
I00
sVcontains(hall)
p739
I01
sS'deliver'
p740
tp741
a((dp742
Vcontains(going)
p743
I00
sVcontains('m)
p744
I00
sVcontains(this)
p745
I01
sVcontains(home)
p746
I00
sVcontains(night)
p747
I00
sVcontains(into)
p748
I00
sVcontains(me)
p749
I00
sVcontains(have)
p750
I00
sVcontains(how)
p751
I00
sVcontains(your)
p752
I00
sVcontains(today)
p753
I00
sVcontains(break)
p754
I00
sVcontains(the)
p755
I00
sVcontains(mail)
p756
I00
sVcontains(morning)
p757
I00
sVcontains(coffee)
p758
I00
sVcontains(down)
p759
I00
sVcontains(next)
p760
I00
sVcontains(bring)
p761
I00
sVcontains(deliver)
p762
I00
sVcontains(paper)
p763
I01
sVcontains(to)
p764
I01
sVcontains(my)
p765
I01
sVcontains(office)
p766
I01
sVcontains(is)
p767
I00
sVcontains(a)
p768
I00
sVcontains(you)
p769
I00
sVcontains(cup)
p770
I00
sVcontains(see)
p771
I00
sVcontains(pencil)
p772
I00
sVcontains(and)
p773
I01
sVcontains(up)
p774
I00
sVcontains(door)
p775
I00
sVcontains(some)
p776
I00
sVcontains(hey)
p777
I00
sVcontains(i)
p778
I00
sVcontains(letter)
p779
I00
sVcontains(of)
p780
I00
sVcontains(later)
p781
I00
sVcontains(it)
p782
I00
sVcontains(off)
p783
I01
sVcontains(good)
p784
I00
sVcontains(over)
p785
I00
sVcontains(hello)
p786
I00
sVcontains(get)
p787
I00
sVcontains(day)
p788
I00
sVcontains(go)
p789
I01
sVcontains(what)
p790
I00
sVcontains(are)
p791
I00
sVcontains(365)
p792
I00
sVcontains(room)
p793
I00
sVcontains('s)
p794
I00
sVcontains(drop)
p795
I01
sVcontains(hall)
p796
I00
sg740
tp797
a((dp798
Vcontains(going)
p799
I00
sVcontains('m)
p800
I00
sVcontains(this)
p801
I01
sVcontains(home)
p802
I00
sVcontains(night)
p803
I00
sVcontains(into)
p804
I00
sVcontains(me)
p805
I00
sVcontains(have)
p806
I00
sVcontains(how)
p807
I00
sVcontains(your)
p808
I00
sVcontains(today)
p809
I00
sVcontains(break)
p810
I00
sVcontains(the)
p811
I01
sVcontains(mail)
p812
I00
sVcontains(morning)
p813
I00
sVcontains(coffee)
p814
I01
sVcontains(down)
p815
I01
sVcontains(next)
p816
I00
sVcontains(bring)
p817
I01
sVcontains(deliver)
p818
I00
sVcontains(paper)
p819
I00
sVcontains(to)
p820
I01
sVcontains(my)
p821
I01
sVcontains(office)
p822
I01
sVcontains(is)
p823
I00
sVcontains(a)
p824
I00
sVcontains(you)
p825
I00
sVcontains(cup)
p826
I01
sVcontains(see)
p827
I00
sVcontains(pencil)
p828
I00
sVcontains(and)
p829
I00
sVcontains(up)
p830
I00
sVcontains(door)
p831
I00
sVcontains(some)
p832
I00
sVcontains(hey)
p833
I00
sVcontains(i)
p834
I00
sVcontains(letter)
p835
I00
sVcontains(of)
p836
I01
sVcontains(later)
p837
I00
sVcontains(it)
p838
I00
sVcontains(off)
p839
I00
sVcontains(good)
p840
I00
sVcontains(over)
p841
I00
sVcontains(hello)
p842
I00
sVcontains(get)
p843
I00
sVcontains(day)
p844
I00
sVcontains(go)
p845
I00
sVcontains(what)
p846
I00
sVcontains(are)
p847
I00
sVcontains(365)
p848
I00
sVcontains(room)
p849
I00
sVcontains('s)
p850
I00
sVcontains(drop)
p851
I00
sVcontains(hall)
p852
I01
sg740
tp853
a((dp854
Vcontains(going)
p855
I00
sVcontains('m)
p856
I00
sVcontains(this)
p857
I01
sVcontains(home)
p858
I00
sVcontains(night)
p859
I00
sVcontains(into)
p860
I00
sVcontains(me)
p861
I00
sVcontains(have)
p862
I00
sVcontains(how)
p863
I00
sVcontains(your)
p864
I00
sVcontains(today)
p865
I00
sVcontains(break)
p866
I00
sVcontains(the)
p867
I01
sVcontains(mail)
p868
I01
sVcontains(morning)
p869
I00
sVcontains(coffee)
p870
I00
sVcontains(down)
p871
I01
sVcontains(next)
p872
I00
sVcontains(bring)
p873
I01
sVcontains(deliver)
p874
I00
sVcontains(paper)
p875
I00
sVcontains(to)
p876
I01
sVcontains(my)
p877
I00
sVcontains(office)
p878
I00
sVcontains(is)
p879
I00
sVcontains(a)
p880
I00
sVcontains(you)
p881
I00
sVcontains(cup)
p882
I00
sVcontains(see)
p883
I00
sVcontains(pencil)
p884
I00
sVcontains(and)
p885
I00
sVcontains(up)
p886
I00
sVcontains(door)
p887
I00
sVcontains(some)
p888
I00
sVcontains(hey)
p889
I00
sVcontains(i)
p890
I00
sVcontains(letter)
p891
I01
sVcontains(of)
p892
I00
sVcontains(later)
p893
I00
sVcontains(it)
p894
I00
sVcontains(off)
p895
I00
sVcontains(good)
p896
I00
sVcontains(over)
p897
I00
sVcontains(hello)
p898
I00
sVcontains(get)
p899
I00
sVcontains(day)
p900
I00
sVcontains(go)
p901
I00
sVcontains(what)
p902
I00
sVcontains(are)
p903
I00
sVcontains(365)
p904
I00
sVcontains(room)
p905
I01
sVcontains('s)
p906
I00
sVcontains(drop)
p907
I00
sVcontains(hall)
p908
I01
sg740
tp909
a((dp910
Vcontains(going)
p911
I00
sVcontains('m)
p912
I00
sVcontains(this)
p913
I01
sVcontains(home)
p914
I00
sVcontains(night)
p915
I00
sVcontains(into)
p916
I00
sVcontains(me)
p917
I00
sVcontains(have)
p918
I00
sVcontains(how)
p919
I00
sVcontains(your)
p920
I00
sVcontains(today)
p921
I00
sVcontains(break)
p922
I00
sVcontains(the)
p923
I00
sVcontains(mail)
p924
I00
sVcontains(morning)
p925
I00
sVcontains(coffee)
p926
I00
sVcontains(down)
p927
I00
sVcontains(next)
p928
I00
sVcontains(bring)
p929
I00
sVcontains(deliver)
p930
I01
sVcontains(paper)
p931
I00
sVcontains(to)
p932
I01
sVcontains(my)
p933
I00
sVcontains(office)
p934
I00
sVcontains(is)
p935
I00
sVcontains(a)
p936
I00
sVcontains(you)
p937
I00
sVcontains(cup)
p938
I00
sVcontains(see)
p939
I00
sVcontains(pencil)
p940
I00
sVcontains(and)
p941
I00
sVcontains(up)
p942
I00
sVcontains(door)
p943
I00
sVcontains(some)
p944
I00
sVcontains(hey)
p945
I00
sVcontains(i)
p946
I00
sVcontains(letter)
p947
I01
sVcontains(of)
p948
I00
sVcontains(later)
p949
I00
sVcontains(it)
p950
I00
sVcontains(off)
p951
I00
sVcontains(good)
p952
I00
sVcontains(over)
p953
I00
sVcontains(hello)
p954
I00
sVcontains(get)
p955
I00
sVcontains(day)
p956
I00
sVcontains(go)
p957
I00
sVcontains(what)
p958
I00
sVcontains(are)
p959
I00
sVcontains(365)
p960
I01
sVcontains(room)
p961
I01
sVcontains('s)
p962
I00
sVcontains(drop)
p963
I00
sVcontains(hall)
p964
I00
sg740
tp965
a((dp966
Vcontains(going)
p967
I00
sVcontains('m)
p968
I00
sVcontains(this)
p969
I00
sVcontains(home)
p970
I00
sVcontains(night)
p971
I00
sVcontains(into)
p972
I00
sVcontains(me)
p973
I00
sVcontains(have)
p974
I00
sVcontains(how)
p975
I00
sVcontains(your)
p976
I00
sVcontains(today)
p977
I00
sVcontains(break)
p978
I01
sVcontains(the)
p979
I01
sVcontains(mail)
p980
I00
sVcontains(morning)
p981
I00
sVcontains(coffee)
p982
I00
sVcontains(down)
p983
I00
sVcontains(next)
p984
I00
sVcontains(bring)
p985
I00
sVcontains(deliver)
p986
I00
sVcontains(paper)
p987
I00
sVcontains(to)
p988
I01
sVcontains(my)
p989
I00
sVcontains(office)
p990
I00
sVcontains(is)
p991
I00
sVcontains(a)
p992
I00
sVcontains(you)
p993
I00
sVcontains(cup)
p994
I00
sVcontains(see)
p995
I00
sVcontains(pencil)
p996
I00
sVcontains(and)
p997
I00
sVcontains(up)
p998
I00
sVcontains(door)
p999
I00
sVcontains(some)
p1000
I00
sVcontains(hey)
p1001
I00
sVcontains(i)
p1002
I00
sVcontains(letter)
p1003
I00
sVcontains(of)
p1004
I00
sVcontains(later)
p1005
I00
sVcontains(it)
p1006
I00
sVcontains(off)
p1007
I00
sVcontains(good)
p1008
I00
sVcontains(over)
p1009
I01
sVcontains(hello)
p1010
I00
sVcontains(get)
p1011
I00
sVcontains(day)
p1012
I00
sVcontains(go)
p1013
I01
sVcontains(what)
p1014
I00
sVcontains(are)
p1015
I00
sVcontains(365)
p1016
I00
sVcontains(room)
p1017
I01
sVcontains('s)
p1018
I00
sVcontains(drop)
p1019
I00
sVcontains(hall)
p1020
I00
sS'go'
p1021
tp1022
a((dp1023
Vcontains(going)
p1024
I00
sVcontains('m)
p1025
I00
sVcontains(this)
p1026
I00
sVcontains(home)
p1027
I00
sVcontains(night)
p1028
I00
sVcontains(into)
p1029
I00
sVcontains(me)
p1030
I00
sVcontains(have)
p1031
I00
sVcontains(how)
p1032
I00
sVcontains(your)
p1033
I00
sVcontains(today)
p1034
I00
sVcontains(break)
p1035
I00
sVcontains(the)
p1036
I01
sVcontains(mail)
p1037
I00
sVcontains(morning)
p1038
I00
sVcontains(coffee)
p1039
I00
sVcontains(down)
p1040
I01
sVcontains(next)
p1041
I00
sVcontains(bring)
p1042
I00
sVcontains(deliver)
p1043
I00
sVcontains(paper)
p1044
I00
sVcontains(to)
p1045
I00
sVcontains(my)
p1046
I00
sVcontains(office)
p1047
I00
sVcontains(is)
p1048
I00
sVcontains(a)
p1049
I00
sVcontains(you)
p1050
I00
sVcontains(cup)
p1051
I00
sVcontains(see)
p1052
I00
sVcontains(pencil)
p1053
I00
sVcontains(and)
p1054
I00
sVcontains(up)
p1055
I00
sVcontains(door)
p1056
I00
sVcontains(some)
p1057
I00
sVcontains(hey)
p1058
I00
sVcontains(i)
p1059
I00
sVcontains(letter)
p1060
I00
sVcontains(of)
p1061
I00
sVcontains(later)
p1062
I00
sVcontains(it)
p1063
I00
sVcontains(off)
p1064
I00
sVcontains(good)
p1065
I00
sVcontains(over)
p1066
I00
sVcontains(hello)
p1067
I00
sVcontains(get)
p1068
I00
sVcontains(day)
p1069
I00
sVcontains(go)
p1070
I01
sVcontains(what)
p1071
I00
sVcontains(are)
p1072
I00
sVcontains(365)
p1073
I00
sVcontains(room)
p1074
I00
sVcontains('s)
p1075
I00
sVcontains(drop)
p1076
I00
sVcontains(hall)
p1077
I01
sg1021
tp1078
a((dp1079
Vcontains(going)
p1080
I00
sVcontains('m)
p1081
I00
sVcontains(this)
p1082
I00
sVcontains(home)
p1083
I00
sVcontains(night)
p1084
I00
sVcontains(into)
p1085
I01
sVcontains(me)
p1086
I00
sVcontains(have)
p1087
I00
sVcontains(how)
p1088
I00
sVcontains(your)
p1089
I00
sVcontains(today)
p1090
I00
sVcontains(break)
p1091
I00
sVcontains(the)
p1092
I01
sVcontains(mail)
p1093
I00
sVcontains(morning)
p1094
I00
sVcontains(coffee)
p1095
I00
sVcontains(down)
p1096
I00
sVcontains(next)
p1097
I01
sVcontains(bring)
p1098
I00
sVcontains(deliver)
p1099
I00
sVcontains(paper)
p1100
I00
sVcontains(to)
p1101
I00
sVcontains(my)
p1102
I00
sVcontains(office)
p1103
I00
sVcontains(is)
p1104
I00
sVcontains(a)
p1105
I00
sVcontains(you)
p1106
I00
sVcontains(cup)
p1107
I00
sVcontains(see)
p1108
I00
sVcontains(pencil)
p1109
I00
sVcontains(and)
p1110
I00
sVcontains(up)
p1111
I00
sVcontains(door)
p1112
I01
sVcontains(some)
p1113
I00
sVcontains(hey)
p1114
I00
sVcontains(i)
p1115
I00
sVcontains(letter)
p1116
I00
sVcontains(of)
p1117
I00
sVcontains(later)
p1118
I00
sVcontains(it)
p1119
I00
sVcontains(off)
p1120
I00
sVcontains(good)
p1121
I00
sVcontains(over)
p1122
I00
sVcontains(hello)
p1123
I00
sVcontains(get)
p1124
I00
sVcontains(day)
p1125
I00
sVcontains(go)
p1126
I01
sVcontains(what)
p1127
I00
sVcontains(are)
p1128
I00
sVcontains(365)
p1129
I00
sVcontains(room)
p1130
I01
sVcontains('s)
p1131
I00
sVcontains(drop)
p1132
I00
sVcontains(hall)
p1133
I00
sg1021
tp1134
asS'train_set'
p1135
(lp1136
(S'hello how are you today'
g65
tp1137
a(S"what's up"
g65
tp1138
a(S"how's it going?"
g65
tp1139
a(S'hey how is your day'
g65
tp1140
a(S'good morning'
g65
tp1141
a(S'good night'
g346
tp1142
a(S"i'm going home"
p1143
g346
tp1144
a(S'have a good day'
g346
tp1145
a(S'see you later'
g346
tp1146
a(S'go and get me some coffee'
g571
tp1147
a(S'go and get me a pencil'
g571
tp1148
a(S'go to the break room and get my coffee'
g571
tp1149
a(S'go down the hall and deliver this to the mail room'
g740
tp1150
a(S'go to my office and drop off this paper'
g740
tp1151
a(S'bring this cup of coffee down the hall to my office'
g740
tp1152
a(S'bring this letter to the mail room down the hall'
g740
tp1153
a(S'deliver this letter to room 365'
g740
tp1154
a(S'go over to the break room'
g1021
tp1155
a(S'go down the hall'
g1021
tp1156
a(S'go into the room next door'
g1021
tp1157
asS'feature_extractor'
p1158
ctextblob.classifiers
basic_extractor
p1159
sb.