ccopy_reg
_reconstructor
p1
(ctextblob.classifiers
NaiveBayesClassifier
p2
c__builtin__
object
p3
NtRp4
(dp5
S'format_kwargs'
p6
(dp7
sS'train_features'
p8
(lp9
((dp10
Vcontains(going)
p11
I00
sVcontains('m)
p12
I00
sVcontains(this)
p13
I00
sVcontains(home)
p14
I00
sVcontains(night)
p15
I00
sVcontains(into)
p16
I00
sVcontains(me)
p17
I00
sVcontains(have)
p18
I00
sVcontains(how)
p19
I01
sVcontains(your)
p20
I00
sVcontains(today)
p21
I01
sVcontains(break)
p22
I00
sVcontains(the)
p23
I00
sVcontains(mail)
p24
I00
sVcontains(morning)
p25
I00
sVcontains(coffee)
p26
I00
sVcontains(down)
p27
I00
sVcontains(man)
p28
I00
sVcontains(next)
p29
I00
sVcontains(bring)
p30
I00
sVcontains(deliver)
p31
I00
sVcontains(paper)
p32
I00
sVcontains(to)
p33
I00
sVcontains(my)
p34
I00
sVcontains(office)
p35
I00
sVcontains(is)
p36
I00
sVcontains(a)
p37
I00
sVcontains(you)
p38
I01
sVcontains(cup)
p39
I00
sVcontains(see)
p40
I00
sVcontains(pencil)
p41
I00
sVcontains(and)
p42
I00
sVcontains(up)
p43
I00
sVcontains(door)
p44
I00
sVcontains(some)
p45
I00
sVcontains(hey)
p46
I00
sVcontains(i)
p47
I00
sVcontains(letter)
p48
I00
sVcontains(of)
p49
I00
sVcontains(later)
p50
I00
sVcontains(it)
p51
I00
sVcontains(off)
p52
I00
sVcontains(good)
p53
I00
sVcontains(over)
p54
I00
sVcontains(hello)
p55
I01
sVcontains(get)
p56
I00
sVcontains(day)
p57
I00
sVcontains(go)
p58
I00
sVcontains(what)
p59
I00
sVcontains(are)
p60
I01
sVcontains(365)
p61
I00
sVcontains(room)
p62
I00
sVcontains('s)
p63
I00
sVcontains(drop)
p64
I00
sVcontains(hall)
p65
I00
sS'greeting'
p66
tp67
a((dp68
Vcontains(going)
p69
I00
sVcontains('m)
p70
I00
sVcontains(this)
p71
I00
sVcontains(home)
p72
I00
sVcontains(night)
p73
I00
sVcontains(into)
p74
I00
sVcontains(me)
p75
I00
sVcontains(have)
p76
I00
sVcontains(how)
p77
I00
sVcontains(your)
p78
I00
sVcontains(today)
p79
I00
sVcontains(break)
p80
I00
sVcontains(the)
p81
I00
sVcontains(mail)
p82
I00
sVcontains(morning)
p83
I00
sVcontains(coffee)
p84
I00
sVcontains(down)
p85
I00
sVcontains(man)
p86
I00
sVcontains(next)
p87
I00
sVcontains(bring)
p88
I00
sVcontains(deliver)
p89
I00
sVcontains(paper)
p90
I00
sVcontains(to)
p91
I00
sVcontains(my)
p92
I00
sVcontains(office)
p93
I00
sVcontains(is)
p94
I00
sVcontains(a)
p95
I00
sVcontains(you)
p96
I00
sVcontains(cup)
p97
I00
sVcontains(see)
p98
I00
sVcontains(pencil)
p99
I00
sVcontains(and)
p100
I00
sVcontains(up)
p101
I01
sVcontains(door)
p102
I00
sVcontains(some)
p103
I00
sVcontains(hey)
p104
I00
sVcontains(i)
p105
I00
sVcontains(letter)
p106
I00
sVcontains(of)
p107
I00
sVcontains(later)
p108
I00
sVcontains(it)
p109
I00
sVcontains(off)
p110
I00
sVcontains(good)
p111
I00
sVcontains(over)
p112
I00
sVcontains(hello)
p113
I00
sVcontains(get)
p114
I00
sVcontains(day)
p115
I00
sVcontains(go)
p116
I00
sVcontains(what)
p117
I01
sVcontains(are)
p118
I00
sVcontains(365)
p119
I00
sVcontains(room)
p120
I00
sVcontains('s)
p121
I00
sVcontains(drop)
p122
I00
sVcontains(hall)
p123
I00
sg66
tp124
a((dp125
Vcontains(going)
p126
I01
sVcontains('m)
p127
I00
sVcontains(this)
p128
I00
sVcontains(home)
p129
I00
sVcontains(night)
p130
I00
sVcontains(into)
p131
I00
sVcontains(me)
p132
I00
sVcontains(have)
p133
I00
sVcontains(how)
p134
I01
sVcontains(your)
p135
I00
sVcontains(today)
p136
I00
sVcontains(break)
p137
I00
sVcontains(the)
p138
I00
sVcontains(mail)
p139
I00
sVcontains(morning)
p140
I00
sVcontains(coffee)
p141
I00
sVcontains(down)
p142
I00
sVcontains(man)
p143
I00
sVcontains(next)
p144
I00
sVcontains(bring)
p145
I00
sVcontains(deliver)
p146
I00
sVcontains(paper)
p147
I00
sVcontains(to)
p148
I00
sVcontains(my)
p149
I00
sVcontains(office)
p150
I00
sVcontains(is)
p151
I00
sVcontains(a)
p152
I00
sVcontains(you)
p153
I00
sVcontains(cup)
p154
I00
sVcontains(see)
p155
I00
sVcontains(pencil)
p156
I00
sVcontains(and)
p157
I00
sVcontains(up)
p158
I00
sVcontains(door)
p159
I00
sVcontains(some)
p160
I00
sVcontains(hey)
p161
I00
sVcontains(i)
p162
I00
sVcontains(letter)
p163
I00
sVcontains(of)
p164
I00
sVcontains(later)
p165
I00
sVcontains(it)
p166
I01
sVcontains(off)
p167
I00
sVcontains(good)
p168
I00
sVcontains(over)
p169
I00
sVcontains(hello)
p170
I00
sVcontains(get)
p171
I00
sVcontains(day)
p172
I00
sVcontains(go)
p173
I00
sVcontains(what)
p174
I00
sVcontains(are)
p175
I00
sVcontains(365)
p176
I00
sVcontains(room)
p177
I00
sVcontains('s)
p178
I00
sVcontains(drop)
p179
I00
sVcontains(hall)
p180
I00
sg66
tp181
a((dp182
Vcontains(going)
p183
I00
sVcontains('m)
p184
I00
sVcontains(this)
p185
I00
sVcontains(home)
p186
I00
sVcontains(night)
p187
I00
sVcontains(into)
p188
I00
sVcontains(me)
p189
I00
sVcontains(have)
p190
I00
sVcontains(how)
p191
I01
sVcontains(your)
p192
I01
sVcontains(today)
p193
I00
sVcontains(break)
p194
I00
sVcontains(the)
p195
I00
sVcontains(mail)
p196
I00
sVcontains(morning)
p197
I00
sVcontains(coffee)
p198
I00
sVcontains(down)
p199
I00
sVcontains(man)
p200
I00
sVcontains(next)
p201
I00
sVcontains(bring)
p202
I00
sVcontains(deliver)
p203
I00
sVcontains(paper)
p204
I00
sVcontains(to)
p205
I00
sVcontains(my)
p206
I00
sVcontains(office)
p207
I00
sVcontains(is)
p208
I01
sVcontains(a)
p209
I00
sVcontains(you)
p210
I00
sVcontains(cup)
p211
I00
sVcontains(see)
p212
I00
sVcontains(pencil)
p213
I00
sVcontains(and)
p214
I00
sVcontains(up)
p215
I00
sVcontains(door)
p216
I00
sVcontains(some)
p217
I00
sVcontains(hey)
p218
I01
sVcontains(i)
p219
I00
sVcontains(letter)
p220
I00
sVcontains(of)
p221
I00
sVcontains(later)
p222
I00
sVcontains(it)
p223
I00
sVcontains(off)
p224
I00
sVcontains(good)
p225
I00
sVcontains(over)
p226
I00
sVcontains(hello)
p227
I00
sVcontains(get)
p228
I00
sVcontains(day)
p229
I01
sVcontains(go)
p230
I00
sVcontains(what)
p231
I00
sVcontains(are)
p232
I00
sVcontains(365)
p233
I00
sVcontains(room)
p234
I00
sVcontains('s)
p235
I00
sVcontains(drop)
p236
I00
sVcontains(hall)
p237
I00
sg66
tp238
a((dp239
Vcontains(going)
p240
I00
sVcontains('m)
p241
I00
sVcontains(this)
p242
I00
sVcontains(home)
p243
I00
sVcontains(night)
p244
I00
sVcontains(into)
p245
I00
sVcontains(me)
p246
I00
sVcontains(have)
p247
I00
sVcontains(how)
p248
I00
sVcontains(your)
p249
I00
sVcontains(today)
p250
I00
sVcontains(break)
p251
I00
sVcontains(the)
p252
I00
sVcontains(mail)
p253
I00
sVcontains(morning)
p254
I01
sVcontains(coffee)
p255
I00
sVcontains(down)
p256
I00
sVcontains(man)
p257
I00
sVcontains(next)
p258
I00
sVcontains(bring)
p259
I00
sVcontains(deliver)
p260
I00
sVcontains(paper)
p261
I00
sVcontains(to)
p262
I00
sVcontains(my)
p263
I00
sVcontains(office)
p264
I00
sVcontains(is)
p265
I00
sVcontains(a)
p266
I00
sVcontains(you)
p267
I00
sVcontains(cup)
p268
I00
sVcontains(see)
p269
I00
sVcontains(pencil)
p270
I00
sVcontains(and)
p271
I00
sVcontains(up)
p272
I00
sVcontains(door)
p273
I00
sVcontains(some)
p274
I00
sVcontains(hey)
p275
I00
sVcontains(i)
p276
I00
sVcontains(letter)
p277
I00
sVcontains(of)
p278
I00
sVcontains(later)
p279
I00
sVcontains(it)
p280
I00
sVcontains(off)
p281
I00
sVcontains(good)
p282
I01
sVcontains(over)
p283
I00
sVcontains(hello)
p284
I00
sVcontains(get)
p285
I00
sVcontains(day)
p286
I00
sVcontains(go)
p287
I00
sVcontains(what)
p288
I00
sVcontains(are)
p289
I00
sVcontains(365)
p290
I00
sVcontains(room)
p291
I00
sVcontains('s)
p292
I00
sVcontains(drop)
p293
I00
sVcontains(hall)
p294
I00
sg66
tp295
a((dp296
Vcontains(going)
p297
I00
sVcontains('m)
p298
I00
sVcontains(this)
p299
I00
sVcontains(home)
p300
I00
sVcontains(night)
p301
I01
sVcontains(into)
p302
I00
sVcontains(me)
p303
I00
sVcontains(have)
p304
I00
sVcontains(how)
p305
I00
sVcontains(your)
p306
I00
sVcontains(today)
p307
I00
sVcontains(break)
p308
I00
sVcontains(the)
p309
I00
sVcontains(mail)
p310
I00
sVcontains(morning)
p311
I00
sVcontains(coffee)
p312
I00
sVcontains(down)
p313
I00
sVcontains(man)
p314
I00
sVcontains(next)
p315
I00
sVcontains(bring)
p316
I00
sVcontains(deliver)
p317
I00
sVcontains(paper)
p318
I00
sVcontains(to)
p319
I00
sVcontains(my)
p320
I00
sVcontains(office)
p321
I00
sVcontains(is)
p322
I00
sVcontains(a)
p323
I00
sVcontains(you)
p324
I00
sVcontains(cup)
p325
I00
sVcontains(see)
p326
I00
sVcontains(pencil)
p327
I00
sVcontains(and)
p328
I00
sVcontains(up)
p329
I00
sVcontains(door)
p330
I00
sVcontains(some)
p331
I00
sVcontains(hey)
p332
I00
sVcontains(i)
p333
I00
sVcontains(letter)
p334
I00
sVcontains(of)
p335
I00
sVcontains(later)
p336
I00
sVcontains(it)
p337
I00
sVcontains(off)
p338
I00
sVcontains(good)
p339
I01
sVcontains(over)
p340
I00
sVcontains(hello)
p341
I00
sVcontains(get)
p342
I00
sVcontains(day)
p343
I00
sVcontains(go)
p344
I00
sVcontains(what)
p345
I00
sVcontains(are)
p346
I00
sVcontains(365)
p347
I00
sVcontains(room)
p348
I00
sVcontains('s)
p349
I00
sVcontains(drop)
p350
I00
sVcontains(hall)
p351
I00
sS'exit'
p352
tp353
a((dp354
Vcontains(going)
p355
I01
sVcontains('m)
p356
I00
sVcontains(this)
p357
I00
sVcontains(home)
p358
I01
sVcontains(night)
p359
I00
sVcontains(into)
p360
I00
sVcontains(me)
p361
I00
sVcontains(have)
p362
I00
sVcontains(how)
p363
I00
sVcontains(your)
p364
I00
sVcontains(today)
p365
I00
sVcontains(break)
p366
I00
sVcontains(the)
p367
I00
sVcontains(mail)
p368
I00
sVcontains(morning)
p369
I00
sVcontains(coffee)
p370
I00
sVcontains(down)
p371
I00
sVcontains(man)
p372
I00
sVcontains(next)
p373
I00
sVcontains(bring)
p374
I00
sVcontains(deliver)
p375
I00
sVcontains(paper)
p376
I00
sVcontains(to)
p377
I00
sVcontains(my)
p378
I00
sVcontains(office)
p379
I00
sVcontains(is)
p380
I00
sVcontains(a)
p381
I00
sVcontains(you)
p382
I00
sVcontains(cup)
p383
I00
sVcontains(see)
p384
I00
sVcontains(pencil)
p385
I00
sVcontains(and)
p386
I00
sVcontains(up)
p387
I00
sVcontains(door)
p388
I00
sVcontains(some)
p389
I00
sVcontains(hey)
p390
I00
sVcontains(i)
p391
I01
sVcontains(letter)
p392
I00
sVcontains(of)
p393
I00
sVcontains(later)
p394
I00
sVcontains(it)
p395
I00
sVcontains(off)
p396
I00
sVcontains(good)
p397
I00
sVcontains(over)
p398
I00
sVcontains(hello)
p399
I00
sVcontains(get)
p400
I00
sVcontains(day)
p401
I00
sVcontains(go)
p402
I00
sVcontains(what)
p403
I00
sVcontains(are)
p404
I00
sVcontains(365)
p405
I00
sVcontains(room)
p406
I00
sVcontains('s)
p407
I00
sVcontains(drop)
p408
I00
sVcontains(hall)
p409
I00
sS'exit'
p410
tp411
a((dp412
Vcontains(going)
p413
I00
sVcontains('m)
p414
I00
sVcontains(this)
p415
I00
sVcontains(home)
p416
I00
sVcontains(night)
p417
I00
sVcontains(into)
p418
I00
sVcontains(me)
p419
I00
sVcontains(have)
p420
I01
sVcontains(how)
p421
I00
sVcontains(your)
p422
I00
sVcontains(today)
p423
I00
sVcontains(break)
p424
I00
sVcontains(the)
p425
I00
sVcontains(mail)
p426
I00
sVcontains(morning)
p427
I00
sVcontains(coffee)
p428
I00
sVcontains(down)
p429
I00
sVcontains(man)
p430
I00
sVcontains(next)
p431
I00
sVcontains(bring)
p432
I00
sVcontains(deliver)
p433
I00
sVcontains(paper)
p434
I00
sVcontains(to)
p435
I00
sVcontains(my)
p436
I00
sVcontains(office)
p437
I00
sVcontains(is)
p438
I00
sVcontains(a)
p439
I01
sVcontains(you)
p440
I00
sVcontains(cup)
p441
I00
sVcontains(see)
p442
I00
sVcontains(pencil)
p443
I00
sVcontains(and)
p444
I00
sVcontains(up)
p445
I00
sVcontains(door)
p446
I00
sVcontains(some)
p447
I00
sVcontains(hey)
p448
I00
sVcontains(i)
p449
I00
sVcontains(letter)
p450
I00
sVcontains(of)
p451
I00
sVcontains(later)
p452
I00
sVcontains(it)
p453
I00
sVcontains(off)
p454
I00
sVcontains(good)
p455
I01
sVcontains(over)
p456
I00
sVcontains(hello)
p457
I00
sVcontains(get)
p458
I00
sVcontains(day)
p459
I01
sVcontains(go)
p460
I00
sVcontains(what)
p461
I00
sVcontains(are)
p462
I00
sVcontains(365)
p463
I00
sVcontains(room)
p464
I00
sVcontains('s)
p465
I00
sVcontains(drop)
p466
I00
sVcontains(hall)
p467
I00
sS'exit'
p468
tp469
a((dp470
Vcontains(going)
p471
I00
sVcontains('m)
p472
I00
sVcontains(this)
p473
I00
sVcontains(home)
p474
I00
sVcontains(night)
p475
I00
sVcontains(into)
p476
I00
sVcontains(me)
p477
I00
sVcontains(have)
p478
I00
sVcontains(how)
p479
I00
sVcontains(your)
p480
I00
sVcontains(today)
p481
I00
sVcontains(break)
p482
I00
sVcontains(the)
p483
I00
sVcontains(mail)
p484
I00
sVcontains(morning)
p485
I00
sVcontains(coffee)
p486
I00
sVcontains(down)
p487
I00
sVcontains(man)
p488
I00
sVcontains(next)
p489
I00
sVcontains(bring)
p490
I00
sVcontains(deliver)
p491
I00
sVcontains(paper)
p492
I00
sVcontains(to)
p493
I00
sVcontains(my)
p494
I00
sVcontains(office)
p495
I00
sVcontains(is)
p496
I00
sVcontains(a)
p497
I00
sVcontains(you)
p498
I01
sVcontains(cup)
p499
I00
sVcontains(see)
p500
I01
sVcontains(pencil)
p501
I00
sVcontains(and)
p502
I00
sVcontains(up)
p503
I00
sVcontains(door)
p504
I00
sVcontains(some)
p505
I00
sVcontains(hey)
p506
I00
sVcontains(i)
p507
I00
sVcontains(letter)
p508
I00
sVcontains(of)
p509
I00
sVcontains(later)
p510
I01
sVcontains(it)
p511
I00
sVcontains(off)
p512
I00
sVcontains(good)
p513
I00
sVcontains(over)
p514
I00
sVcontains(hello)
p515
I00
sVcontains(get)
p516
I00
sVcontains(day)
p517
I00
sVcontains(go)
p518
I00
sVcontains(what)
p519
I00
sVcontains(are)
p520
I00
sVcontains(365)
p521
I00
sVcontains(room)
p522
I00
sVcontains('s)
p523
I00
sVcontains(drop)
p524
I00
sVcontains(hall)
p525
I00
sS'exit'
p526
tp527
a((dp528
Vcontains(going)
p529
I00
sVcontains('m)
p530
I00
sVcontains(this)
p531
I00
sVcontains(home)
p532
I00
sVcontains(night)
p533
I00
sVcontains(into)
p534
I00
sVcontains(me)
p535
I01
sVcontains(have)
p536
I00
sVcontains(how)
p537
I00
sVcontains(your)
p538
I00
sVcontains(today)
p539
I00
sVcontains(break)
p540
I00
sVcontains(the)
p541
I00
sVcontains(mail)
p542
I00
sVcontains(morning)
p543
I00
sVcontains(coffee)
p544
I01
sVcontains(down)
p545
I00
sVcontains(man)
p546
I00
sVcontains(next)
p547
I00
sVcontains(bring)
p548
I00
sVcontains(deliver)
p549
I00
sVcontains(paper)
p550
I00
sVcontains(to)
p551
I00
sVcontains(my)
p552
I00
sVcontains(office)
p553
I00
sVcontains(is)
p554
I00
sVcontains(a)
p555
I00
sVcontains(you)
p556
I00
sVcontains(cup)
p557
I00
sVcontains(see)
p558
I00
sVcontains(pencil)
p559
I00
sVcontains(and)
p560
I01
sVcontains(up)
p561
I00
sVcontains(door)
p562
I00
sVcontains(some)
p563
I01
sVcontains(hey)
p564
I00
sVcontains(i)
p565
I00
sVcontains(letter)
p566
I00
sVcontains(of)
p567
I00
sVcontains(later)
p568
I00
sVcontains(it)
p569
I00
sVcontains(off)
p570
I00
sVcontains(good)
p571
I00
sVcontains(over)
p572
I00
sVcontains(hello)
p573
I00
sVcontains(get)
p574
I01
sVcontains(day)
p575
I00
sVcontains(go)
p576
I01
sVcontains(what)
p577
I00
sVcontains(are)
p578
I00
sVcontains(365)
p579
I00
sVcontains(room)
p580
I00
sVcontains('s)
p581
I00
sVcontains(drop)
p582
I00
sVcontains(hall)
p583
I00
sS'get'
p584
tp585
a((dp586
Vcontains(going)
p587
I00
sVcontains('m)
p588
I00
sVcontains(this)
p589
I00
sVcontains(home)
p590
I00
sVcontains(night)
p591
I00
sVcontains(into)
p592
I00
sVcontains(me)
p593
I01
sVcontains(have)
p594
I00
sVcontains(how)
p595
I00
sVcontains(your)
p596
I00
sVcontains(today)
p597
I00
sVcontains(break)
p598
I00
sVcontains(the)
p599
I00
sVcontains(mail)
p600
I00
sVcontains(morning)
p601
I00
sVcontains(coffee)
p602
I00
sVcontains(down)
p603
I00
sVcontains(man)
p604
I00
sVcontains(next)
p605
I00
sVcontains(bring)
p606
I00
sVcontains(deliver)
p607
I00
sVcontains(paper)
p608
I00
sVcontains(to)
p609
I00
sVcontains(my)
p610
I00
sVcontains(office)
p611
I00
sVcontains(is)
p612
I00
sVcontains(a)
p613
I01
sVcontains(you)
p614
I00
sVcontains(cup)
p615
I00
sVcontains(see)
p616
I00
sVcontains(pencil)
p617
I01
sVcontains(and)
p618
I01
sVcontains(up)
p619
I00
sVcontains(door)
p620
I00
sVcontains(some)
p621
I00
sVcontains(hey)
p622
I00
sVcontains(i)
p623
I00
sVcontains(letter)
p624
I00
sVcontains(of)
p625
I00
sVcontains(later)
p626
I00
sVcontains(it)
p627
I00
sVcontains(off)
p628
I00
sVcontains(good)
p629
I00
sVcontains(over)
p630
I00
sVcontains(hello)
p631
I00
sVcontains(get)
p632
I01
sVcontains(day)
p633
I00
sVcontains(go)
p634
I01
sVcontains(what)
p635
I00
sVcontains(are)
p636
I00
sVcontains(365)
p637
I00
sVcontains(room)
p638
I00
sVcontains('s)
p639
I00
sVcontains(drop)
p640
I00
sVcontains(hall)
p641
I00
sS'get'
p642
tp643
a((dp644
Vcontains(going)
p645
I00
sVcontains('m)
p646
I00
sVcontains(this)
p647
I00
sVcontains(home)
p648
I00
sVcontains(night)
p649
I00
sVcontains(into)
p650
I00
sVcontains(me)
p651
I00
sVcontains(have)
p652
I00
sVcontains(how)
p653
I00
sVcontains(your)
p654
I00
sVcontains(today)
p655
I00
sVcontains(break)
p656
I01
sVcontains(the)
p657
I01
sVcontains(mail)
p658
I00
sVcontains(morning)
p659
I00
sVcontains(coffee)
p660
I01
sVcontains(down)
p661
I00
sVcontains(man)
p662
I00
sVcontains(next)
p663
I00
sVcontains(bring)
p664
I00
sVcontains(deliver)
p665
I00
sVcontains(paper)
p666
I00
sVcontains(to)
p667
I01
sVcontains(my)
p668
I01
sVcontains(office)
p669
I00
sVcontains(is)
p670
I00
sVcontains(a)
p671
I00
sVcontains(you)
p672
I00
sVcontains(cup)
p673
I00
sVcontains(see)
p674
I00
sVcontains(pencil)
p675
I00
sVcontains(and)
p676
I01
sVcontains(up)
p677
I00
sVcontains(door)
p678
I00
sVcontains(some)
p679
I00
sVcontains(hey)
p680
I00
sVcontains(i)
p681
I00
sVcontains(letter)
p682
I00
sVcontains(of)
p683
I00
sVcontains(later)
p684
I00
sVcontains(it)
p685
I00
sVcontains(off)
p686
I00
sVcontains(good)
p687
I00
sVcontains(over)
p688
I00
sVcontains(hello)
p689
I00
sVcontains(get)
p690
I01
sVcontains(day)
p691
I00
sVcontains(go)
p692
I01
sVcontains(what)
p693
I00
sVcontains(are)
p694
I00
sVcontains(365)
p695
I00
sVcontains(room)
p696
I01
sVcontains('s)
p697
I00
sVcontains(drop)
p698
I00
sVcontains(hall)
p699
I00
sS'get'
p700
tp701
a((dp702
Vcontains(going)
p703
I00
sVcontains('m)
p704
I00
sVcontains(this)
p705
I01
sVcontains(home)
p706
I00
sVcontains(night)
p707
I00
sVcontains(into)
p708
I00
sVcontains(me)
p709
I00
sVcontains(have)
p710
I00
sVcontains(how)
p711
I00
sVcontains(your)
p712
I00
sVcontains(today)
p713
I00
sVcontains(break)
p714
I00
sVcontains(the)
p715
I01
sVcontains(mail)
p716
I01
sVcontains(morning)
p717
I00
sVcontains(coffee)
p718
I00
sVcontains(down)
p719
I01
sVcontains(man)
p720
I00
sVcontains(next)
p721
I00
sVcontains(bring)
p722
I00
sVcontains(deliver)
p723
I01
sVcontains(paper)
p724
I00
sVcontains(to)
p725
I01
sVcontains(my)
p726
I00
sVcontains(office)
p727
I00
sVcontains(is)
p728
I00
sVcontains(a)
p729
I00
sVcontains(you)
p730
I00
sVcontains(cup)
p731
I00
sVcontains(see)
p732
I00
sVcontains(pencil)
p733
I00
sVcontains(and)
p734
I01
sVcontains(up)
p735
I00
sVcontains(door)
p736
I00
sVcontains(some)
p737
I00
sVcontains(hey)
p738
I00
sVcontains(i)
p739
I00
sVcontains(letter)
p740
I00
sVcontains(of)
p741
I00
sVcontains(later)
p742
I00
sVcontains(it)
p743
I00
sVcontains(off)
p744
I00
sVcontains(good)
p745
I00
sVcontains(over)
p746
I00
sVcontains(hello)
p747
I00
sVcontains(get)
p748
I00
sVcontains(day)
p749
I00
sVcontains(go)
p750
I01
sVcontains(what)
p751
I00
sVcontains(are)
p752
I00
sVcontains(365)
p753
I00
sVcontains(room)
p754
I01
sVcontains('s)
p755
I00
sVcontains(drop)
p756
I00
sVcontains(hall)
p757
I01
sS'deliver'
p758
tp759
a((dp760
Vcontains(going)
p761
I00
sVcontains('m)
p762
I00
sVcontains(this)
p763
I01
sVcontains(home)
p764
I00
sVcontains(night)
p765
I00
sVcontains(into)
p766
I00
sVcontains(me)
p767
I00
sVcontains(have)
p768
I00
sVcontains(how)
p769
I00
sVcontains(your)
p770
I00
sVcontains(today)
p771
I00
sVcontains(break)
p772
I00
sVcontains(the)
p773
I00
sVcontains(mail)
p774
I00
sVcontains(morning)
p775
I00
sVcontains(coffee)
p776
I00
sVcontains(down)
p777
I00
sVcontains(man)
p778
I00
sVcontains(next)
p779
I00
sVcontains(bring)
p780
I00
sVcontains(deliver)
p781
I00
sVcontains(paper)
p782
I01
sVcontains(to)
p783
I01
sVcontains(my)
p784
I01
sVcontains(office)
p785
I01
sVcontains(is)
p786
I00
sVcontains(a)
p787
I00
sVcontains(you)
p788
I00
sVcontains(cup)
p789
I00
sVcontains(see)
p790
I00
sVcontains(pencil)
p791
I00
sVcontains(and)
p792
I01
sVcontains(up)
p793
I00
sVcontains(door)
p794
I00
sVcontains(some)
p795
I00
sVcontains(hey)
p796
I00
sVcontains(i)
p797
I00
sVcontains(letter)
p798
I00
sVcontains(of)
p799
I00
sVcontains(later)
p800
I00
sVcontains(it)
p801
I00
sVcontains(off)
p802
I01
sVcontains(good)
p803
I00
sVcontains(over)
p804
I00
sVcontains(hello)
p805
I00
sVcontains(get)
p806
I00
sVcontains(day)
p807
I00
sVcontains(go)
p808
I01
sVcontains(what)
p809
I00
sVcontains(are)
p810
I00
sVcontains(365)
p811
I00
sVcontains(room)
p812
I00
sVcontains('s)
p813
I00
sVcontains(drop)
p814
I01
sVcontains(hall)
p815
I00
sg758
tp816
a((dp817
Vcontains(going)
p818
I00
sVcontains('m)
p819
I00
sVcontains(this)
p820
I01
sVcontains(home)
p821
I00
sVcontains(night)
p822
I00
sVcontains(into)
p823
I00
sVcontains(me)
p824
I00
sVcontains(have)
p825
I00
sVcontains(how)
p826
I00
sVcontains(your)
p827
I00
sVcontains(today)
p828
I00
sVcontains(break)
p829
I00
sVcontains(the)
p830
I01
sVcontains(mail)
p831
I00
sVcontains(morning)
p832
I00
sVcontains(coffee)
p833
I01
sVcontains(down)
p834
I01
sVcontains(man)
p835
I00
sVcontains(next)
p836
I00
sVcontains(bring)
p837
I01
sVcontains(deliver)
p838
I00
sVcontains(paper)
p839
I00
sVcontains(to)
p840
I01
sVcontains(my)
p841
I01
sVcontains(office)
p842
I01
sVcontains(is)
p843
I00
sVcontains(a)
p844
I00
sVcontains(you)
p845
I00
sVcontains(cup)
p846
I01
sVcontains(see)
p847
I00
sVcontains(pencil)
p848
I00
sVcontains(and)
p849
I00
sVcontains(up)
p850
I00
sVcontains(door)
p851
I00
sVcontains(some)
p852
I00
sVcontains(hey)
p853
I00
sVcontains(i)
p854
I00
sVcontains(letter)
p855
I00
sVcontains(of)
p856
I01
sVcontains(later)
p857
I00
sVcontains(it)
p858
I00
sVcontains(off)
p859
I00
sVcontains(good)
p860
I00
sVcontains(over)
p861
I00
sVcontains(hello)
p862
I00
sVcontains(get)
p863
I00
sVcontains(day)
p864
I00
sVcontains(go)
p865
I00
sVcontains(what)
p866
I00
sVcontains(are)
p867
I00
sVcontains(365)
p868
I00
sVcontains(room)
p869
I00
sVcontains('s)
p870
I00
sVcontains(drop)
p871
I00
sVcontains(hall)
p872
I01
sg758
tp873
a((dp874
Vcontains(going)
p875
I00
sVcontains('m)
p876
I00
sVcontains(this)
p877
I01
sVcontains(home)
p878
I00
sVcontains(night)
p879
I00
sVcontains(into)
p880
I00
sVcontains(me)
p881
I00
sVcontains(have)
p882
I00
sVcontains(how)
p883
I00
sVcontains(your)
p884
I00
sVcontains(today)
p885
I00
sVcontains(break)
p886
I00
sVcontains(the)
p887
I01
sVcontains(mail)
p888
I01
sVcontains(morning)
p889
I00
sVcontains(coffee)
p890
I00
sVcontains(down)
p891
I01
sVcontains(man)
p892
I00
sVcontains(next)
p893
I00
sVcontains(bring)
p894
I01
sVcontains(deliver)
p895
I00
sVcontains(paper)
p896
I00
sVcontains(to)
p897
I01
sVcontains(my)
p898
I00
sVcontains(office)
p899
I00
sVcontains(is)
p900
I00
sVcontains(a)
p901
I00
sVcontains(you)
p902
I00
sVcontains(cup)
p903
I00
sVcontains(see)
p904
I00
sVcontains(pencil)
p905
I00
sVcontains(and)
p906
I00
sVcontains(up)
p907
I00
sVcontains(door)
p908
I00
sVcontains(some)
p909
I00
sVcontains(hey)
p910
I00
sVcontains(i)
p911
I00
sVcontains(letter)
p912
I01
sVcontains(of)
p913
I00
sVcontains(later)
p914
I00
sVcontains(it)
p915
I00
sVcontains(off)
p916
I00
sVcontains(good)
p917
I00
sVcontains(over)
p918
I00
sVcontains(hello)
p919
I00
sVcontains(get)
p920
I00
sVcontains(day)
p921
I00
sVcontains(go)
p922
I00
sVcontains(what)
p923
I00
sVcontains(are)
p924
I00
sVcontains(365)
p925
I00
sVcontains(room)
p926
I01
sVcontains('s)
p927
I00
sVcontains(drop)
p928
I00
sVcontains(hall)
p929
I01
sg758
tp930
a((dp931
Vcontains(going)
p932
I00
sVcontains('m)
p933
I00
sVcontains(this)
p934
I01
sVcontains(home)
p935
I00
sVcontains(night)
p936
I00
sVcontains(into)
p937
I00
sVcontains(me)
p938
I00
sVcontains(have)
p939
I00
sVcontains(how)
p940
I00
sVcontains(your)
p941
I00
sVcontains(today)
p942
I00
sVcontains(break)
p943
I00
sVcontains(the)
p944
I00
sVcontains(mail)
p945
I00
sVcontains(morning)
p946
I00
sVcontains(coffee)
p947
I00
sVcontains(down)
p948
I00
sVcontains(man)
p949
I00
sVcontains(next)
p950
I00
sVcontains(bring)
p951
I00
sVcontains(deliver)
p952
I01
sVcontains(paper)
p953
I00
sVcontains(to)
p954
I01
sVcontains(my)
p955
I00
sVcontains(office)
p956
I00
sVcontains(is)
p957
I00
sVcontains(a)
p958
I00
sVcontains(you)
p959
I00
sVcontains(cup)
p960
I00
sVcontains(see)
p961
I00
sVcontains(pencil)
p962
I00
sVcontains(and)
p963
I00
sVcontains(up)
p964
I00
sVcontains(door)
p965
I00
sVcontains(some)
p966
I00
sVcontains(hey)
p967
I00
sVcontains(i)
p968
I00
sVcontains(letter)
p969
I01
sVcontains(of)
p970
I00
sVcontains(later)
p971
I00
sVcontains(it)
p972
I00
sVcontains(off)
p973
I00
sVcontains(good)
p974
I00
sVcontains(over)
p975
I00
sVcontains(hello)
p976
I00
sVcontains(get)
p977
I00
sVcontains(day)
p978
I00
sVcontains(go)
p979
I00
sVcontains(what)
p980
I00
sVcontains(are)
p981
I00
sVcontains(365)
p982
I01
sVcontains(room)
p983
I01
sVcontains('s)
p984
I00
sVcontains(drop)
p985
I00
sVcontains(hall)
p986
I00
sg758
tp987
a((dp988
Vcontains(going)
p989
I00
sVcontains('m)
p990
I00
sVcontains(this)
p991
I00
sVcontains(home)
p992
I00
sVcontains(night)
p993
I00
sVcontains(into)
p994
I00
sVcontains(me)
p995
I00
sVcontains(have)
p996
I00
sVcontains(how)
p997
I00
sVcontains(your)
p998
I00
sVcontains(today)
p999
I00
sVcontains(break)
p1000
I01
sVcontains(the)
p1001
I01
sVcontains(mail)
p1002
I00
sVcontains(morning)
p1003
I00
sVcontains(coffee)
p1004
I00
sVcontains(down)
p1005
I00
sVcontains(man)
p1006
I00
sVcontains(next)
p1007
I00
sVcontains(bring)
p1008
I00
sVcontains(deliver)
p1009
I00
sVcontains(paper)
p1010
I00
sVcontains(to)
p1011
I01
sVcontains(my)
p1012
I00
sVcontains(office)
p1013
I00
sVcontains(is)
p1014
I00
sVcontains(a)
p1015
I00
sVcontains(you)
p1016
I00
sVcontains(cup)
p1017
I00
sVcontains(see)
p1018
I00
sVcontains(pencil)
p1019
I00
sVcontains(and)
p1020
I00
sVcontains(up)
p1021
I00
sVcontains(door)
p1022
I00
sVcontains(some)
p1023
I00
sVcontains(hey)
p1024
I00
sVcontains(i)
p1025
I00
sVcontains(letter)
p1026
I00
sVcontains(of)
p1027
I00
sVcontains(later)
p1028
I00
sVcontains(it)
p1029
I00
sVcontains(off)
p1030
I00
sVcontains(good)
p1031
I00
sVcontains(over)
p1032
I01
sVcontains(hello)
p1033
I00
sVcontains(get)
p1034
I00
sVcontains(day)
p1035
I00
sVcontains(go)
p1036
I01
sVcontains(what)
p1037
I00
sVcontains(are)
p1038
I00
sVcontains(365)
p1039
I00
sVcontains(room)
p1040
I01
sVcontains('s)
p1041
I00
sVcontains(drop)
p1042
I00
sVcontains(hall)
p1043
I00
sS'go'
p1044
tp1045
a((dp1046
Vcontains(going)
p1047
I00
sVcontains('m)
p1048
I00
sVcontains(this)
p1049
I00
sVcontains(home)
p1050
I00
sVcontains(night)
p1051
I00
sVcontains(into)
p1052
I00
sVcontains(me)
p1053
I00
sVcontains(have)
p1054
I00
sVcontains(how)
p1055
I00
sVcontains(your)
p1056
I00
sVcontains(today)
p1057
I00
sVcontains(break)
p1058
I00
sVcontains(the)
p1059
I01
sVcontains(mail)
p1060
I00
sVcontains(morning)
p1061
I00
sVcontains(coffee)
p1062
I00
sVcontains(down)
p1063
I01
sVcontains(man)
p1064
I00
sVcontains(next)
p1065
I00
sVcontains(bring)
p1066
I00
sVcontains(deliver)
p1067
I00
sVcontains(paper)
p1068
I00
sVcontains(to)
p1069
I00
sVcontains(my)
p1070
I00
sVcontains(office)
p1071
I00
sVcontains(is)
p1072
I00
sVcontains(a)
p1073
I00
sVcontains(you)
p1074
I00
sVcontains(cup)
p1075
I00
sVcontains(see)
p1076
I00
sVcontains(pencil)
p1077
I00
sVcontains(and)
p1078
I00
sVcontains(up)
p1079
I00
sVcontains(door)
p1080
I00
sVcontains(some)
p1081
I00
sVcontains(hey)
p1082
I00
sVcontains(i)
p1083
I00
sVcontains(letter)
p1084
I00
sVcontains(of)
p1085
I00
sVcontains(later)
p1086
I00
sVcontains(it)
p1087
I00
sVcontains(off)
p1088
I00
sVcontains(good)
p1089
I00
sVcontains(over)
p1090
I00
sVcontains(hello)
p1091
I00
sVcontains(get)
p1092
I00
sVcontains(day)
p1093
I00
sVcontains(go)
p1094
I01
sVcontains(what)
p1095
I00
sVcontains(are)
p1096
I00
sVcontains(365)
p1097
I00
sVcontains(room)
p1098
I00
sVcontains('s)
p1099
I00
sVcontains(drop)
p1100
I00
sVcontains(hall)
p1101
I01
sg1044
tp1102
a((dp1103
Vcontains(going)
p1104
I00
sVcontains('m)
p1105
I00
sVcontains(this)
p1106
I00
sVcontains(home)
p1107
I00
sVcontains(night)
p1108
I00
sVcontains(into)
p1109
I01
sVcontains(me)
p1110
I00
sVcontains(have)
p1111
I00
sVcontains(how)
p1112
I00
sVcontains(your)
p1113
I00
sVcontains(today)
p1114
I00
sVcontains(break)
p1115
I00
sVcontains(the)
p1116
I01
sVcontains(mail)
p1117
I00
sVcontains(morning)
p1118
I00
sVcontains(coffee)
p1119
I00
sVcontains(down)
p1120
I00
sVcontains(man)
p1121
I00
sVcontains(next)
p1122
I01
sVcontains(bring)
p1123
I00
sVcontains(deliver)
p1124
I00
sVcontains(paper)
p1125
I00
sVcontains(to)
p1126
I00
sVcontains(my)
p1127
I00
sVcontains(office)
p1128
I00
sVcontains(is)
p1129
I00
sVcontains(a)
p1130
I00
sVcontains(you)
p1131
I00
sVcontains(cup)
p1132
I00
sVcontains(see)
p1133
I00
sVcontains(pencil)
p1134
I00
sVcontains(and)
p1135
I00
sVcontains(up)
p1136
I00
sVcontains(door)
p1137
I01
sVcontains(some)
p1138
I00
sVcontains(hey)
p1139
I00
sVcontains(i)
p1140
I00
sVcontains(letter)
p1141
I00
sVcontains(of)
p1142
I00
sVcontains(later)
p1143
I00
sVcontains(it)
p1144
I00
sVcontains(off)
p1145
I00
sVcontains(good)
p1146
I00
sVcontains(over)
p1147
I00
sVcontains(hello)
p1148
I00
sVcontains(get)
p1149
I00
sVcontains(day)
p1150
I00
sVcontains(go)
p1151
I01
sVcontains(what)
p1152
I00
sVcontains(are)
p1153
I00
sVcontains(365)
p1154
I00
sVcontains(room)
p1155
I01
sVcontains('s)
p1156
I00
sVcontains(drop)
p1157
I00
sVcontains(hall)
p1158
I00
sg1044
tp1159
a((dp1160
Vcontains(going)
p1161
I00
sVcontains('m)
p1162
I00
sVcontains(this)
p1163
I00
sVcontains(home)
p1164
I00
sVcontains(night)
p1165
I00
sVcontains(into)
p1166
I00
sVcontains(me)
p1167
I00
sVcontains(have)
p1168
I00
sVcontains(how)
p1169
I00
sVcontains(your)
p1170
I00
sVcontains(today)
p1171
I00
sVcontains(break)
p1172
I00
sVcontains(the)
p1173
I00
sVcontains(mail)
p1174
I00
sVcontains(morning)
p1175
I00
sVcontains(coffee)
p1176
I00
sVcontains(down)
p1177
I00
sVcontains(man)
p1178
I01
sVcontains(next)
p1179
I00
sVcontains(bring)
p1180
I00
sVcontains(deliver)
p1181
I00
sVcontains(paper)
p1182
I00
sVcontains(to)
p1183
I00
sVcontains(my)
p1184
I00
sVcontains(office)
p1185
I00
sVcontains(is)
p1186
I00
sVcontains(a)
p1187
I00
sVcontains(you)
p1188
I00
sVcontains(cup)
p1189
I00
sVcontains(see)
p1190
I00
sVcontains(pencil)
p1191
I00
sVcontains(and)
p1192
I00
sVcontains(up)
p1193
I01
sVcontains(door)
p1194
I00
sVcontains(some)
p1195
I00
sVcontains(hey)
p1196
I01
sVcontains(i)
p1197
I00
sVcontains(letter)
p1198
I00
sVcontains(of)
p1199
I00
sVcontains(later)
p1200
I00
sVcontains(it)
p1201
I00
sVcontains(off)
p1202
I00
sVcontains(good)
p1203
I00
sVcontains(over)
p1204
I00
sVcontains(hello)
p1205
I00
sVcontains(get)
p1206
I00
sVcontains(day)
p1207
I00
sVcontains(go)
p1208
I00
sVcontains(what)
p1209
I01
sVcontains(are)
p1210
I00
sVcontains(365)
p1211
I00
sVcontains(room)
p1212
I00
sVcontains('s)
p1213
I00
sVcontains(drop)
p1214
I00
sVcontains(hall)
p1215
I00
sg66
tp1216
a((dp1217
Vcontains(going)
p1218
I00
sVcontains('m)
p1219
I00
sVcontains(this)
p1220
I00
sVcontains(home)
p1221
I00
sVcontains(night)
p1222
I00
sVcontains(into)
p1223
I00
sVcontains(me)
p1224
I00
sVcontains(have)
p1225
I00
sVcontains(how)
p1226
I00
sVcontains(your)
p1227
I00
sVcontains(today)
p1228
I00
sVcontains(break)
p1229
I00
sVcontains(the)
p1230
I00
sVcontains(mail)
p1231
I00
sVcontains(morning)
p1232
I00
sVcontains(coffee)
p1233
I00
sVcontains(down)
p1234
I00
sVcontains(man)
p1235
I01
sVcontains(next)
p1236
I00
sVcontains(bring)
p1237
I00
sVcontains(deliver)
p1238
I00
sVcontains(paper)
p1239
I00
sVcontains(to)
p1240
I00
sVcontains(my)
p1241
I00
sVcontains(office)
p1242
I00
sVcontains(is)
p1243
I00
sVcontains(a)
p1244
I00
sVcontains(you)
p1245
I00
sVcontains(cup)
p1246
I00
sVcontains(see)
p1247
I00
sVcontains(pencil)
p1248
I00
sVcontains(and)
p1249
I00
sVcontains(up)
p1250
I01
sVcontains(door)
p1251
I00
sVcontains(some)
p1252
I00
sVcontains(hey)
p1253
I01
sVcontains(i)
p1254
I00
sVcontains(letter)
p1255
I00
sVcontains(of)
p1256
I00
sVcontains(later)
p1257
I00
sVcontains(it)
p1258
I00
sVcontains(off)
p1259
I00
sVcontains(good)
p1260
I00
sVcontains(over)
p1261
I00
sVcontains(hello)
p1262
I00
sVcontains(get)
p1263
I00
sVcontains(day)
p1264
I00
sVcontains(go)
p1265
I00
sVcontains(what)
p1266
I01
sVcontains(are)
p1267
I00
sVcontains(365)
p1268
I00
sVcontains(room)
p1269
I00
sVcontains('s)
p1270
I00
sVcontains(drop)
p1271
I00
sVcontains(hall)
p1272
I00
sg66
tp1273
asS'train_set'
p1274
(lp1275
(S'hello how are you today'
g66
tp1276
a(S"what's up"
g66
tp1277
a(S"how's it going?"
g66
tp1278
a(S'hey how is your day'
g66
tp1279
a(S'good morning'
g66
tp1280
a(S'good night'
g352
tp1281
a(S"i'm going home"
g410
tp1282
a(S'have a good day'
g468
tp1283
a(S'see you later'
g526
tp1284
a(S'go and get me some coffee'
g584
tp1285
a(S'go and get me a pencil'
g642
tp1286
a(S'go to the break room and get my coffee'
g700
tp1287
a(S'go down the hall and deliver this to the mail room'
g758
tp1288
a(S'go to my office and drop off this paper'
g758
tp1289
a(S'bring this cup of coffee down the hall to my office'
g758
tp1290
a(S'bring this letter to the mail room down the hall'
g758
tp1291
a(S'deliver this letter to room 365'
g758
tp1292
a(S'go over to the break room'
g1044
tp1293
a(S'go down the hall'
g1044
tp1294
a(S'go into the room next door'
g1044
tp1295
a(S"hey man what's up"
g66
tp1296
a(S"hey man what's up"
p1297
g66
tp1298
asS'feature_extractor'
p1299
ctextblob.classifiers
basic_extractor
p1300
sS'classifier'
p1301
g1
(cnltk.classify.naivebayes
NaiveBayesClassifier
p1302
g3
NtRp1303
(dp1304
S'_labels'
p1305
(lp1306
g1044
ag758
ag352
ag66
ag584
asS'_feature_probdist'
p1307
(dp1308
(g352
g306
tp1309
g1
(cnltk.probability
ELEProbDist
p1310
g3
NtRp1311
(dp1312
S'_gamma'
p1313
F0.5
sS'_N'
p1314
I4
sS'_freqdist'
p1315
cnltk.probability
FreqDist
p1316
((dp1317
I00
I4
stRp1318
sS'_bins'
p1319
I2
sS'_divisor'
p1320
F5
sbs(g66
g19
tp1321
g1
(g1310
g3
NtRp1322
(dp1323
g1313
F0.5
sg1314
I7
sg1315
g1316
((dp1324
I00
I4
sI01
I3
stRp1325
sg1319
I2
sg1320
F8
sbs(g758
g708
tp1326
g1
(g1310
g3
NtRp1327
(dp1328
g1313
F0.5
sg1314
I5
sg1315
g1316
((dp1329
I00
I5
stRp1330
sg1319
I2
sg1320
F6
sbs(g758
g716
tp1331
g1
(g1310
g3
NtRp1332
(dp1333
g1313
F0.5
sg1314
I5
sg1315
g1316
((dp1334
I00
I3
sI01
I2
stRp1335
sg1319
I2
sg1320
F6
sbs(g66
g49
tp1336
g1
(g1310
g3
NtRp1337
(dp1338
g1313
F0.5
sg1314
I7
sg1315
g1316
((dp1339
I00
I7
stRp1340
sg1319
I2
sg1320
F8
sbs(g1044
g1003
tp1341
g1
(g1310
g3
NtRp1342
(dp1343
g1313
F0.5
sg1314
I3
sg1315
g1316
((dp1344
I00
I3
stRp1345
sg1319
I2
sg1320
F4
sbs(g758
g718
tp1346
g1
(g1310
g3
NtRp1347
(dp1348
g1313
F0.5
sg1314
I5
sg1315
g1316
((dp1349
I00
I4
sI01
I1
stRp1350
sg1319
I2
sg1320
F6
sbs(g758
g710
tp1351
g1
(g1310
g3
NtRp1352
(dp1353
g1313
F0.5
sg1314
I5
sg1315
g1316
((dp1354
I00
I5
stRp1355
sg1319
I2
sg1320
F6
sbs(g758
g744
tp1356
g1
(g1310
g3
NtRp1357
(dp1358
g1313
F0.5
sg1314
I5
sg1315
g1316
((dp1359
I00
I4
sI01
I1
stRp1360
sg1319
I2
sg1320
F6
sbs(g352
g325
tp1361
g1
(g1310
g3
NtRp1362
(dp1363
g1313
F0.5
sg1314
I4
sg1315
g1316
((dp1364
I00
I4
stRp1365
sg1319
I2
sg1320
F5
sbs(g352
g343
tp1366
g1
(g1310
g3
NtRp1367
(dp1368
g1313
F0.5
sg1314
I4
sg1315
g1316
((dp1369
I00
I3
sI01
I1
stRp1370
sg1319
I2
sg1320
F5
sbs(g1044
g1036
tp1371
g1
(g1310
g3
NtRp1372
(dp1373
g1313
F0.5
sg1314
I3
sg1315
g1316
((dp1374
I01
I3
stRp1375
sg1319
I2
sg1320
F4
sbs(g352
g339
tp1376
g1
(g1310
g3
NtRp1377
(dp1378
g1313
F0.5
sg1314
I4
sg1315
g1316
((dp1379
I00
I2
sI01
I2
stRp1380
sg1319
I2
sg1320
F5
sbs(g1044
g1019
tp1381
g1
(g1310
g3
NtRp1382
(dp1383
g1313
F0.5
sg1314
I3
sg1315
g1316
((dp1384
I00
I3
stRp1385
sg1319
I2
sg1320
F4
sbs(g352
g323
tp1386
g1
(g1310
g3
NtRp1387
(dp1388
g1313
F0.5
sg1314
I4
sg1315
g1316
((dp1389
I00
I3
sI01
I1
stRp1390
sg1319
I2
sg1320
F5
sbs(g584
g535
tp1391
g1
(g1310
g3
NtRp1392
(dp1393
g1313
F0.5
sg1314
I3
sg1315
g1316
((dp1394
I00
I1
sI01
I2
stRp1395
sg1319
I2
sg1320
F4
sbs(g584
g554
tp1396
g1
(g1310
g3
NtRp1397
(dp1398
g1313
F0.5
sg1314
I3
sg1315
g1316
((dp1399
I00
I3
stRp1400
sg1319
I2
sg1320
F4
sbs(g758
g728
tp1401
g1
(g1310
g3
NtRp1402
(dp1403
g1313
F0.5
sg1314
I5
sg1315
g1316
((dp1404
I00
I5
stRp1405
sg1319
I2
sg1320
F6
sbs(g66
g13
tp1406
g1
(g1310
g3
NtRp1407
(dp1408
g1313
F0.5
sg1314
I7
sg1315
g1316
((dp1409
I00
I7
stRp1410
sg1319
I2
sg1320
F8
sbs(g758
g742
tp1411
g1
(g1310
g3
NtRp1412
(dp1413
g1313
F0.5
sg1314
I5
sg1315
g1316
((dp1414
I00
I5
stRp1415
sg1319
I2
sg1320
F6
sbs(g1044
g996
tp1416
g1
(g1310
g3
NtRp1417
(dp1418
g1313
F0.5
sg1314
I3
sg1315
g1316
((dp1419
I00
I3
stRp1420
sg1319
I2
sg1320
F4
sbs(g352
g326
tp1421
g1
(g1310
g3
NtRp1422
(dp1423
g1313
F0.5
sg1314
I4
sg1315
g1316
((dp1424
I00
I3
sI01
I1
stRp1425
sg1319
I2
sg1320
F5
sbs(g758
g713
tp1426
g1
(g1310
g3
NtRp1427
(dp1428
g1313
F0.5
sg1314
I5
sg1315
g1316
((dp1429
I00
I5
stRp1430
sg1319
I2
sg1320
F6
sbs(g584
g529
tp1431
g1
(g1310
g3
NtRp1432
(dp1433
g1313
F0.5
sg1314
I3
sg1315
g1316
((dp1434
I00
I3
stRp1435
sg1319
I2
sg1320
F4
sbs(g758
g724
tp1436
g1
(g1310
g3
NtRp1437
(dp1438
g1313
F0.5
sg1314
I5
sg1315
g1316
((dp1439
I00
I4
sI01
I1
stRp1440
sg1319
I2
sg1320
F6
sbs(g66
g25
tp1441
g1
(g1310
g3
NtRp1442
(dp1443
g1313
F0.5
sg1314
I7
sg1315
g1316
((dp1444
I00
I6
sI01
I1
stRp1445
sg1319
I2
sg1320
F8
sbs(g758
g754
tp1446
g1
(g1310
g3
NtRp1447
(dp1448
g1313
F0.5
sg1314
I5
sg1315
g1316
((dp1449
I00
I2
sI01
I3
stRp1450
sg1319
I2
sg1320
F6
sbs(g66
g33
tp1451
g1
(g1310
g3
NtRp1452
(dp1453
g1313
F0.5
sg1314
I7
sg1315
g1316
((dp1454
I00
I7
stRp1455
sg1319
I2
sg1320
F8
sbs(g584
g561
tp1456
g1
(g1310
g3
NtRp1457
(dp1458
g1313
F0.5
sg1314
I3
sg1315
g1316
((dp1459
I00
I3
stRp1460
sg1319
I2
sg1320
F4
sbs(g1044
g1009
tp1461
g1
(g1310
g3
NtRp1462
(dp1463
g1313
F0.5
sg1314
I3
sg1315
g1316
((dp1464
I00
I3
stRp1465
sg1319
I2
sg1320
F4
sbs(g352
g314
tp1466
g1
(g1310
g3
NtRp1467
(dp1468
g1313
F0.5
sg1314
I4
sg1315
g1316
((dp1469
I00
I4
stRp1470
sg1319
I2
sg1320
F5
sbs(g584
g558
tp1471
g1
(g1310
g3
NtRp1472
(dp1473
g1313
F0.5
sg1314
I3
sg1315
g1316
((dp1474
I00
I3
stRp1475
sg1319
I2
sg1320
F4
sbs(g758
g732
tp1476
g1
(g1310
g3
NtRp1477
(dp1478
g1313
F0.5
sg1314
I5
sg1315
g1316
((dp1479
I00
I5
stRp1480
sg1319
I2
sg1320
F6
sbs(g758
g712
tp1481
g1
(g1310
g3
NtRp1482
(dp1483
g1313
F0.5
sg1314
I5
sg1315
g1316
((dp1484
I00
I5
stRp1485
sg1319
I2
sg1320
F6
sbs(g352
g328
tp1486
g1
(g1310
g3
NtRp1487
(dp1488
g1313
F0.5
sg1314
I4
sg1315
g1316
((dp1489
I00
I4
stRp1490
sg1319
I2
sg1320
F5
sbs(g1044
g1011
tp1491
g1
(g1310
g3
NtRp1492
(dp1493
g1313
F0.5
sg1314
I3
sg1315
g1316
((dp1494
I00
I2
sI01
I1
stRp1495
sg1319
I2
sg1320
F4
sbs(g352
g337
tp1496
g1
(g1310
g3
NtRp1497
(dp1498
g1313
F0.5
sg1314
I4
sg1315
g1316
((dp1499
I00
I4
stRp1500
sg1319
I2
sg1320
F5
sbs(g584
g574
tp1501
g1
(g1310
g3
NtRp1502
(dp1503
g1313
F0.5
sg1314
I3
sg1315
g1316
((dp1504
I01
I3
stRp1505
sg1319
I2
sg1320
F4
sbs(g352
g315
tp1506
g1
(g1310
g3
NtRp1507
(dp1508
g1313
F0.5
sg1314
I4
sg1315
g1316
((dp1509
I00
I4
stRp1510
sg1319
I2
sg1320
F5
sbs(g66
g11
tp1511
g1
(g1310
g3
NtRp1512
(dp1513
g1313
F0.5
sg1314
I7
sg1315
g1316
((dp1514
I00
I6
sI01
I1
stRp1515
sg1319
I2
sg1320
F8
sbs(g1044
g1040
tp1516
g1
(g1310
g3
NtRp1517
(dp1518
g1313
F0.5
sg1314
I3
sg1315
g1316
((dp1519
I00
I1
sI01
I2
stRp1520
sg1319
I2
sg1320
F4
sbs(g66
g14
tp1521
g1
(g1310
g3
NtRp1522
(dp1523
g1313
F0.5
sg1314
I7
sg1315
g1316
((dp1524
I00
I7
stRp1525
sg1319
I2
sg1320
F8
sbs(g66
g16
tp1526
g1
(g1310
g3
NtRp1527
(dp1528
g1313
F0.5
sg1314
I7
sg1315
g1316
((dp1529
I00
I7
stRp1530
sg1319
I2
sg1320
F8
sbs(g66
g52
tp1531
g1
(g1310
g3
NtRp1532
(dp1533
g1313
F0.5
sg1314
I7
sg1315
g1316
((dp1534
I00
I7
stRp1535
sg1319
I2
sg1320
F8
sbs(g66
g60
tp1536
g1
(g1310
g3
NtRp1537
(dp1538
g1313
F0.5
sg1314
I7
sg1315
g1316
((dp1539
I00
I6
sI01
I1
stRp1540
sg1319
I2
sg1320
F8
sbs(g1044
g999
tp1541
g1
(g1310
g3
NtRp1542
(dp1543
g1313
F0.5
sg1314
I3
sg1315
g1316
((dp1544
I00
I3
stRp1545
sg1319
I2
sg1320
F4
sbs(g66
g48
tp1546
g1
(g1310
g3
NtRp1547
(dp1548
g1313
F0.5
sg1314
I7
sg1315
g1316
((dp1549
I00
I7
stRp1550
sg1319
I2
sg1320
F8
sbs(g66
g18
tp1551
g1
(g1310
g3
NtRp1552
(dp1553
g1313
F0.5
sg1314
I7
sg1315
g1316
((dp1554
I00
I7
stRp1555
sg1319
I2
sg1320
F8
sbs(g758
g727
tp1556
g1
(g1310
g3
NtRp1557
(dp1558
g1313
F0.5
sg1314
I5
sg1315
g1316
((dp1559
I00
I3
sI01
I2
stRp1560
sg1319
I2
sg1320
F6
sbs(g66
g17
tp1561
g1
(g1310
g3
NtRp1562
(dp1563
g1313
F0.5
sg1314
I7
sg1315
g1316
((dp1564
I00
I7
stRp1565
sg1319
I2
sg1320
F8
sbs(g584
g579
tp1566
g1
(g1310
g3
NtRp1567
(dp1568
g1313
F0.5
sg1314
I3
sg1315
g1316
((dp1569
I00
I3
stRp1570
sg1319
I2
sg1320
F4
sbs(g66
g41
tp1571
g1
(g1310
g3
NtRp1572
(dp1573
g1313
F0.5
sg1314
I7
sg1315
g1316
((dp1574
I00
I7
stRp1575
sg1319
I2
sg1320
F8
sbs(g352
g344
tp1576
g1
(g1310
g3
NtRp1577
(dp1578
g1313
F0.5
sg1314
I4
sg1315
g1316
((dp1579
I00
I4
stRp1580
sg1319
I2
sg1320
F5
sbs(g66
g15
tp1581
g1
(g1310
g3
NtRp1582
(dp1583
g1313
F0.5
sg1314
I7
sg1315
g1316
((dp1584
I00
I7
stRp1585
sg1319
I2
sg1320
F8
sbs(g758
g725
tp1586
g1
(g1310
g3
NtRp1587
(dp1588
g1313
F0.5
sg1314
I5
sg1315
g1316
((dp1589
I01
I5
stRp1590
sg1319
I2
sg1320
F6
sbs(g352
g309
tp1591
g1
(g1310
g3
NtRp1592
(dp1593
g1313
F0.5
sg1314
I4
sg1315
g1316
((dp1594
I00
I4
stRp1595
sg1319
I2
sg1320
F5
sbs(g758
g747
tp1596
g1
(g1310
g3
NtRp1597
(dp1598
g1313
F0.5
sg1314
I5
sg1315
g1316
((dp1599
I00
I5
stRp1600
sg1319
I2
sg1320
F6
sbs(g66
g21
tp1601
g1
(g1310
g3
NtRp1602
(dp1603
g1313
F0.5
sg1314
I7
sg1315
g1316
((dp1604
I00
I6
sI01
I1
stRp1605
sg1319
I2
sg1320
F8
sbs(g584
g555
tp1606
g1
(g1310
g3
NtRp1607
(dp1608
g1313
F0.5
sg1314
I3
sg1315
g1316
((dp1609
I00
I2
sI01
I1
stRp1610
sg1319
I2
sg1320
F4
sbs(g758
g729
tp1611
g1
(g1310
g3
NtRp1612
(dp1613
g1313
F0.5
sg1314
I5
sg1315
g1316
((dp1614
I00
I5
stRp1615
sg1319
I2
sg1320
F6
sbs(g1044
g1043
tp1616
g1
(g1310
g3
NtRp1617
(dp1618
g1313
F0.5
sg1314
I3
sg1315
g1316
((dp1619
I00
I2
sI01
I1
stRp1620
sg1319
I2
sg1320
F4
sbs(g352
g305
tp1621
g1
(g1310
g3
NtRp1622
(dp1623
g1313
F0.5
sg1314
I4
sg1315
g1316
((dp1624
I00
I4
stRp1625
sg1319
I2
sg1320
F5
sbs(g66
g32
tp1626
g1
(g1310
g3
NtRp1627
(dp1628
g1313
F0.5
sg1314
I7
sg1315
g1316
((dp1629
I00
I7
stRp1630
sg1319
I2
sg1320
F8
sbs(g66
g56
tp1631
g1
(g1310
g3
NtRp1632
(dp1633
g1313
F0.5
sg1314
I7
sg1315
g1316
((dp1634
I00
I7
stRp1635
sg1319
I2
sg1320
F8
sbs(g66
g65
tp1636
g1
(g1310
g3
NtRp1637
(dp1638
g1313
F0.5
sg1314
I7
sg1315
g1316
((dp1639
I00
I7
stRp1640
sg1319
I2
sg1320
F8
sbs(g584
g532
tp1641
g1
(g1310
g3
NtRp1642
(dp1643
g1313
F0.5
sg1314
I3
sg1315
g1316
((dp1644
I00
I3
stRp1645
sg1319
I2
sg1320
F4
sbs(g1044
g1006
tp1646
g1
(g1310
g3
NtRp1647
(dp1648
g1313
F0.5
sg1314
I3
sg1315
g1316
((dp1649
I00
I3
stRp1650
sg1319
I2
sg1320
F4
sbs(g1044
g1034
tp1651
g1
(g1310
g3
NtRp1652
(dp1653
g1313
F0.5
sg1314
I3
sg1315
g1316
((dp1654
I00
I3
stRp1655
sg1319
I2
sg1320
F4
sbs(g584
g534
tp1656
g1
(g1310
g3
NtRp1657
(dp1658
g1313
F0.5
sg1314
I3
sg1315
g1316
((dp1659
I00
I3
stRp1660
sg1319
I2
sg1320
F4
sbs(g66
g23
tp1661
g1
(g1310
g3
NtRp1662
(dp1663
g1313
F0.5
sg1314
I7
sg1315
g1316
((dp1664
I00
I7
stRp1665
sg1319
I2
sg1320
F8
sbs(g584
g578
tp1666
g1
(g1310
g3
NtRp1667
(dp1668
g1313
F0.5
sg1314
I3
sg1315
g1316
((dp1669
I00
I3
stRp1670
sg1319
I2
sg1320
F4
sbs(g758
g738
tp1671
g1
(g1310
g3
NtRp1672
(dp1673
g1313
F0.5
sg1314
I5
sg1315
g1316
((dp1674
I00
I5
stRp1675
sg1319
I2
sg1320
F6
sbs(g1044
g1025
tp1676
g1
(g1310
g3
NtRp1677
(dp1678
g1313
F0.5
sg1314
I3
sg1315
g1316
((dp1679
I00
I3
stRp1680
sg1319
I2
sg1320
F4
sbs(g1044
g1029
tp1681
g1
(g1310
g3
NtRp1682
(dp1683
g1313
F0.5
sg1314
I3
sg1315
g1316
((dp1684
I00
I3
stRp1685
sg1319
I2
sg1320
F4
sbs(g1044
g991
tp1686
g1
(g1310
g3
NtRp1687
(dp1688
g1313
F0.5
sg1314
I3
sg1315
g1316
((dp1689
I00
I3
stRp1690
sg1319
I2
sg1320
F4
sbs(g352
g336
tp1691
g1
(g1310
g3
NtRp1692
(dp1693
g1313
F0.5
sg1314
I4
sg1315
g1316
((dp1694
I00
I3
sI01
I1
stRp1695
sg1319
I2
sg1320
F5
sbs(g758
g704
tp1696
g1
(g1310
g3
NtRp1697
(dp1698
g1313
F0.5
sg1314
I5
sg1315
g1316
((dp1699
I00
I5
stRp1700
sg1319
I1
sg1320
F5.5
sbs(g584
g536
tp1701
g1
(g1310
g3
NtRp1702
(dp1703
g1313
F0.5
sg1314
I3
sg1315
g1316
((dp1704
I00
I3
stRp1705
sg1319
I2
sg1320
F4
sbs(g66
g24
tp1706
g1
(g1310
g3
NtRp1707
(dp1708
g1313
F0.5
sg1314
I7
sg1315
g1316
((dp1709
I00
I7
stRp1710
sg1319
I2
sg1320
F8
sbs(g66
g61
tp1711
g1
(g1310
g3
NtRp1712
(dp1713
g1313
F0.5
sg1314
I7
sg1315
g1316
((dp1714
I00
I7
stRp1715
sg1319
I2
sg1320
F8
sbs(g1044
g1023
tp1716
g1
(g1310
g3
NtRp1717
(dp1718
g1313
F0.5
sg1314
I3
sg1315
g1316
((dp1719
I00
I3
stRp1720
sg1319
I2
sg1320
F4
sbs(g1044
g1014
tp1721
g1
(g1310
g3
NtRp1722
(dp1723
g1313
F0.5
sg1314
I3
sg1315
g1316
((dp1724
I00
I3
stRp1725
sg1319
I2
sg1320
F4
sbs(g352
g313
tp1726
g1
(g1310
g3
NtRp1727
(dp1728
g1313
F0.5
sg1314
I4
sg1315
g1316
((dp1729
I00
I4
stRp1730
sg1319
I2
sg1320
F5
sbs(g584
g559
tp1731
g1
(g1310
g3
NtRp1732
(dp1733
g1313
F0.5
sg1314
I3
sg1315
g1316
((dp1734
I00
I2
sI01
I1
stRp1735
sg1319
I2
sg1320
F4
sbs(g758
g731
tp1736
g1
(g1310
g3
NtRp1737
(dp1738
g1313
F0.5
sg1314
I5
sg1315
g1316
((dp1739
I00
I4
sI01
I1
stRp1740
sg1319
I2
sg1320
F6
sbs(g584
g562
tp1741
g1
(g1310
g3
NtRp1742
(dp1743
g1313
F0.5
sg1314
I3
sg1315
g1316
((dp1744
I00
I3
stRp1745
sg1319
I2
sg1320
F4
sbs(g758
g736
tp1746
g1
(g1310
g3
NtRp1747
(dp1748
g1313
F0.5
sg1314
I5
sg1315
g1316
((dp1749
I00
I5
stRp1750
sg1319
I2
sg1320
F6
sbs(g584
g539
tp1751
g1
(g1310
g3
NtRp1752
(dp1753
g1313
F0.5
sg1314
I3
sg1315
g1316
((dp1754
I00
I3
stRp1755
sg1319
I2
sg1320
F4
sbs(g1044
g1002
tp1756
g1
(g1310
g3
NtRp1757
(dp1758
g1313
F0.5
sg1314
I3
sg1315
g1316
((dp1759
I00
I3
stRp1760
sg1319
I2
sg1320
F4
sbs(g1044
g990
tp1761
g1
(g1310
g3
NtRp1762
(dp1763
g1313
F0.5
sg1314
I3
sg1315
g1316
((dp1764
I00
I3
stRp1765
sg1319
I1
sg1320
F3.5
sbs(g66
g37
tp1766
g1
(g1310
g3
NtRp1767
(dp1768
g1313
F0.5
sg1314
I7
sg1315
g1316
((dp1769
I00
I7
stRp1770
sg1319
I2
sg1320
F8
sbs(g352
g331
tp1771
g1
(g1310
g3
NtRp1772
(dp1773
g1313
F0.5
sg1314
I4
sg1315
g1316
((dp1774
I00
I4
stRp1775
sg1319
I2
sg1320
F5
sbs(g584
g563
tp1776
g1
(g1310
g3
NtRp1777
(dp1778
g1313
F0.5
sg1314
I3
sg1315
g1316
((dp1779
I00
I2
sI01
I1
stRp1780
sg1319
I2
sg1320
F4
sbs(g352
g321
tp1781
g1
(g1310
g3
NtRp1782
(dp1783
g1313
F0.5
sg1314
I4
sg1315
g1316
((dp1784
I00
I4
stRp1785
sg1319
I2
sg1320
F5
sbs(g758
g711
tp1786
g1
(g1310
g3
NtRp1787
(dp1788
g1313
F0.5
sg1314
I5
sg1315
g1316
((dp1789
I00
I5
stRp1790
sg1319
I2
sg1320
F6
sbs(g352
g308
tp1791
g1
(g1310
g3
NtRp1792
(dp1793
g1313
F0.5
sg1314
I4
sg1315
g1316
((dp1794
I00
I4
stRp1795
sg1319
I2
sg1320
F5
sbs(g66
g47
tp1796
g1
(g1310
g3
NtRp1797
(dp1798
g1313
F0.5
sg1314
I7
sg1315
g1316
((dp1799
I00
I7
stRp1800
sg1319
I2
sg1320
F8
sbs(g1044
g1041
tp1801
g1
(g1310
g3
NtRp1802
(dp1803
g1313
F0.5
sg1314
I3
sg1315
g1316
((dp1804
I00
I3
stRp1805
sg1319
I1
sg1320
F3.5
sbs(g584
g583
tp1806
g1
(g1310
g3
NtRp1807
(dp1808
g1313
F0.5
sg1314
I3
sg1315
g1316
((dp1809
I00
I3
stRp1810
sg1319
I2
sg1320
F4
sbs(g352
g329
tp1811
g1
(g1310
g3
NtRp1812
(dp1813
g1313
F0.5
sg1314
I4
sg1315
g1316
((dp1814
I00
I4
stRp1815
sg1319
I2
sg1320
F5
sbs(g758
g748
tp1816
g1
(g1310
g3
NtRp1817
(dp1818
g1313
F0.5
sg1314
I5
sg1315
g1316
((dp1819
I00
I5
stRp1820
sg1319
I2
sg1320
F6
sbs(g584
g541
tp1821
g1
(g1310
g3
NtRp1822
(dp1823
g1313
F0.5
sg1314
I3
sg1315
g1316
((dp1824
I00
I2
sI01
I1
stRp1825
sg1319
I2
sg1320
F4
sbs(g1044
g1001
tp1826
g1
(g1310
g3
NtRp1827
(dp1828
g1313
F0.5
sg1314
I3
sg1315
g1316
((dp1829
I01
I3
stRp1830
sg1319
I2
sg1320
F4
sbs(g1044
g997
tp1831
g1
(g1310
g3
NtRp1832
(dp1833
g1313
F0.5
sg1314
I3
sg1315
g1316
((dp1834
I00
I3
stRp1835
sg1319
I2
sg1320
F4
sbs(g758
g703
tp1836
g1
(g1310
g3
NtRp1837
(dp1838
g1313
F0.5
sg1314
I5
sg1315
g1316
((dp1839
I00
I5
stRp1840
sg1319
I2
sg1320
F6
sbs(g758
g749
tp1841
g1
(g1310
g3
NtRp1842
(dp1843
g1313
F0.5
sg1314
I5
sg1315
g1316
((dp1844
I00
I5
stRp1845
sg1319
I2
sg1320
F6
sbs(g66
g63
tp1846
g1
(g1310
g3
NtRp1847
(dp1848
g1313
F0.5
sg1314
I7
sg1315
g1316
((dp1849
I00
I7
stRp1850
sg1319
I1
sg1320
F7.5
sbs(g584
g538
tp1851
g1
(g1310
g3
NtRp1852
(dp1853
g1313
F0.5
sg1314
I3
sg1315
g1316
((dp1854
I00
I3
stRp1855
sg1319
I2
sg1320
F4
sbs(g584
g542
tp1856
g1
(g1310
g3
NtRp1857
(dp1858
g1313
F0.5
sg1314
I3
sg1315
g1316
((dp1859
I00
I3
stRp1860
sg1319
I2
sg1320
F4
sbs(g584
g549
tp1861
g1
(g1310
g3
NtRp1862
(dp1863
g1313
F0.5
sg1314
I3
sg1315
g1316
((dp1864
I00
I3
stRp1865
sg1319
I2
sg1320
F4
sbs(g584
g577
tp1866
g1
(g1310
g3
NtRp1867
(dp1868
g1313
F0.5
sg1314
I3
sg1315
g1316
((dp1869
I00
I3
stRp1870
sg1319
I2
sg1320
F4
sbs(g758
g746
tp1871
g1
(g1310
g3
NtRp1872
(dp1873
g1313
F0.5
sg1314
I5
sg1315
g1316
((dp1874
I00
I5
stRp1875
sg1319
I2
sg1320
F6
sbs(g584
g570
tp1876
g1
(g1310
g3
NtRp1877
(dp1878
g1313
F0.5
sg1314
I3
sg1315
g1316
((dp1879
I00
I3
stRp1880
sg1319
I2
sg1320
F4
sbs(g352
g341
tp1881
g1
(g1310
g3
NtRp1882
(dp1883
g1313
F0.5
sg1314
I4
sg1315
g1316
((dp1884
I00
I4
stRp1885
sg1319
I2
sg1320
F5
sbs(g352
g333
tp1886
g1
(g1310
g3
NtRp1887
(dp1888
g1313
F0.5
sg1314
I4
sg1315
g1316
((dp1889
I00
I3
sI01
I1
stRp1890
sg1319
I2
sg1320
F5
sbs(g758
g753
tp1891
g1
(g1310
g3
NtRp1892
(dp1893
g1313
F0.5
sg1314
I5
sg1315
g1316
((dp1894
I00
I4
sI01
I1
stRp1895
sg1319
I2
sg1320
F6
sbs(g352
g311
tp1896
g1
(g1310
g3
NtRp1897
(dp1898
g1313
F0.5
sg1314
I4
sg1315
g1316
((dp1899
I00
I4
stRp1900
sg1319
I2
sg1320
F5
sbs(g758
g705
tp1901
g1
(g1310
g3
NtRp1902
(dp1903
g1313
F0.5
sg1314
I5
sg1315
g1316
((dp1904
I01
I5
stRp1905
sg1319
I2
sg1320
F6
sbs(g66
g44
tp1906
g1
(g1310
g3
NtRp1907
(dp1908
g1313
F0.5
sg1314
I7
sg1315
g1316
((dp1909
I00
I7
stRp1910
sg1319
I2
sg1320
F8
sbs(g758
g755
tp1911
g1
(g1310
g3
NtRp1912
(dp1913
g1313
F0.5
sg1314
I5
sg1315
g1316
((dp1914
I00
I5
stRp1915
sg1319
I1
sg1320
F5.5
sbs(g352
g347
tp1916
g1
(g1310
g3
NtRp1917
(dp1918
g1313
F0.5
sg1314
I4
sg1315
g1316
((dp1919
I00
I4
stRp1920
sg1319
I2
sg1320
F5
sbs(g1044
g1035
tp1921
g1
(g1310
g3
NtRp1922
(dp1923
g1313
F0.5
sg1314
I3
sg1315
g1316
((dp1924
I00
I3
stRp1925
sg1319
I2
sg1320
F4
sbs(g758
g709
tp1926
g1
(g1310
g3
NtRp1927
(dp1928
g1313
F0.5
sg1314
I5
sg1315
g1316
((dp1929
I00
I5
stRp1930
sg1319
I2
sg1320
F6
sbs(g352
g301
tp1931
g1
(g1310
g3
NtRp1932
(dp1933
g1313
F0.5
sg1314
I4
sg1315
g1316
((dp1934
I00
I3
sI01
I1
stRp1935
sg1319
I2
sg1320
F5
sbs(g1044
g1010
tp1936
g1
(g1310
g3
NtRp1937
(dp1938
g1313
F0.5
sg1314
I3
sg1315
g1316
((dp1939
I00
I3
stRp1940
sg1319
I2
sg1320
F4
sbs(g352
g338
tp1941
g1
(g1310
g3
NtRp1942
(dp1943
g1313
F0.5
sg1314
I4
sg1315
g1316
((dp1944
I00
I4
stRp1945
sg1319
I2
sg1320
F5
sbs(g66
g45
tp1946
g1
(g1310
g3
NtRp1947
(dp1948
g1313
F0.5
sg1314
I7
sg1315
g1316
((dp1949
I00
I7
stRp1950
sg1319
I2
sg1320
F8
sbs(g758
g707
tp1951
g1
(g1310
g3
NtRp1952
(dp1953
g1313
F0.5
sg1314
I5
sg1315
g1316
((dp1954
I00
I5
stRp1955
sg1319
I2
sg1320
F6
sbs(g1044
g1032
tp1956
g1
(g1310
g3
NtRp1957
(dp1958
g1313
F0.5
sg1314
I3
sg1315
g1316
((dp1959
I00
I2
sI01
I1
stRp1960
sg1319
I2
sg1320
F4
sbs(g352
g297
tp1961
g1
(g1310
g3
NtRp1962
(dp1963
g1313
F0.5
sg1314
I4
sg1315
g1316
((dp1964
I00
I3
sI01
I1
stRp1965
sg1319
I2
sg1320
F5
sbs(g66
g42
tp1966
g1
(g1310
g3
NtRp1967
(dp1968
g1313
F0.5
sg1314
I7
sg1315
g1316
((dp1969
I00
I7
stRp1970
sg1319
I2
sg1320
F8
sbs(g1044
g1038
tp1971
g1
(g1310
g3
NtRp1972
(dp1973
g1313
F0.5
sg1314
I3
sg1315
g1316
((dp1974
I00
I3
stRp1975
sg1319
I2
sg1320
F4
sbs(g1044
g1018
tp1976
g1
(g1310
g3
NtRp1977
(dp1978
g1313
F0.5
sg1314
I3
sg1315
g1316
((dp1979
I00
I3
stRp1980
sg1319
I2
sg1320
F4
sbs(g352
g342
tp1981
g1
(g1310
g3
NtRp1982
(dp1983
g1313
F0.5
sg1314
I4
sg1315
g1316
((dp1984
I00
I4
stRp1985
sg1319
I2
sg1320
F5
sbs(g352
g312
tp1986
g1
(g1310
g3
NtRp1987
(dp1988
g1313
F0.5
sg1314
I4
sg1315
g1316
((dp1989
I00
I4
stRp1990
sg1319
I2
sg1320
F5
sbs(g1044
g1004
tp1991
g1
(g1310
g3
NtRp1992
(dp1993
g1313
F0.5
sg1314
I3
sg1315
g1316
((dp1994
I00
I3
stRp1995
sg1319
I2
sg1320
F4
sbs(g1044
g1000
tp1996
g1
(g1310
g3
NtRp1997
(dp1998
g1313
F0.5
sg1314
I3
sg1315
g1316
((dp1999
I00
I2
sI01
I1
stRp2000
sg1319
I2
sg1320
F4
sbs(g758
g741
tp2001
g1
(g1310
g3
NtRp2002
(dp2003
g1313
F0.5
sg1314
I5
sg1315
g1316
((dp2004
I00
I4
sI01
I1
stRp2005
sg1319
I2
sg1320
F6
sbs(g758
g752
tp2006
g1
(g1310
g3
NtRp2007
(dp2008
g1313
F0.5
sg1314
I5
sg1315
g1316
((dp2009
I00
I5
stRp2010
sg1319
I2
sg1320
F6
sbs(g584
g533
tp2011
g1
(g1310
g3
NtRp2012
(dp2013
g1313
F0.5
sg1314
I3
sg1315
g1316
((dp2014
I00
I3
stRp2015
sg1319
I2
sg1320
F4
sbs(g584
g540
tp2016
g1
(g1310
g3
NtRp2017
(dp2018
g1313
F0.5
sg1314
I3
sg1315
g1316
((dp2019
I00
I2
sI01
I1
stRp2020
sg1319
I2
sg1320
F4
sbs(g66
g51
tp2021
g1
(g1310
g3
NtRp2022
(dp2023
g1313
F0.5
sg1314
I7
sg1315
g1316
((dp2024
I00
I6
sI01
I1
stRp2025
sg1319
I2
sg1320
F8
sbs(g66
g31
tp2026
g1
(g1310
g3
NtRp2027
(dp2028
g1313
F0.5
sg1314
I7
sg1315
g1316
((dp2029
I00
I7
stRp2030
sg1319
I2
sg1320
F8
sbs(g1044
g1016
tp2031
g1
(g1310
g3
NtRp2032
(dp2033
g1313
F0.5
sg1314
I3
sg1315
g1316
((dp2034
I00
I3
stRp2035
sg1319
I2
sg1320
F4
sbs(g352
g351
tp2036
g1
(g1310
g3
NtRp2037
(dp2038
g1313
F0.5
sg1314
I4
sg1315
g1316
((dp2039
I00
I4
stRp2040
sg1319
I2
sg1320
F5
sbs(g352
g334
tp2041
g1
(g1310
g3
NtRp2042
(dp2043
g1313
F0.5
sg1314
I4
sg1315
g1316
((dp2044
I00
I4
stRp2045
sg1319
I2
sg1320
F5
sbs(g66
g46
tp2046
g1
(g1310
g3
NtRp2047
(dp2048
g1313
F0.5
sg1314
I7
sg1315
g1316
((dp2049
I00
I4
sI01
I3
stRp2050
sg1319
I2
sg1320
F8
sbs(g66
g26
tp2051
g1
(g1310
g3
NtRp2052
(dp2053
g1313
F0.5
sg1314
I7
sg1315
g1316
((dp2054
I00
I7
stRp2055
sg1319
I2
sg1320
F8
sbs(g584
g552
tp2056
g1
(g1310
g3
NtRp2057
(dp2058
g1313
F0.5
sg1314
I3
sg1315
g1316
((dp2059
I00
I2
sI01
I1
stRp2060
sg1319
I2
sg1320
F4
sbs(g66
g34
tp2061
g1
(g1310
g3
NtRp2062
(dp2063
g1313
F0.5
sg1314
I7
sg1315
g1316
((dp2064
I00
I7
stRp2065
sg1319
I2
sg1320
F8
sbs(g584
g560
tp2066
g1
(g1310
g3
NtRp2067
(dp2068
g1313
F0.5
sg1314
I3
sg1315
g1316
((dp2069
I01
I3
stRp2070
sg1319
I2
sg1320
F4
sbs(g1044
g1024
tp2071
g1
(g1310
g3
NtRp2072
(dp2073
g1313
F0.5
sg1314
I3
sg1315
g1316
((dp2074
I00
I3
stRp2075
sg1319
I2
sg1320
F4
sbs(g758
g734
tp2076
g1
(g1310
g3
NtRp2077
(dp2078
g1313
F0.5
sg1314
I5
sg1315
g1316
((dp2079
I00
I3
sI01
I2
stRp2080
sg1319
I2
sg1320
F6
sbs(g352
g316
tp2081
g1
(g1310
g3
NtRp2082
(dp2083
g1313
F0.5
sg1314
I4
sg1315
g1316
((dp2084
I00
I4
stRp2085
sg1319
I2
sg1320
F5
sbs(g352
g318
tp2086
g1
(g1310
g3
NtRp2087
(dp2088
g1313
F0.5
sg1314
I4
sg1315
g1316
((dp2089
I00
I4
stRp2090
sg1319
I2
sg1320
F5
sbs(g584
g550
tp2091
g1
(g1310
g3
NtRp2092
(dp2093
g1313
F0.5
sg1314
I3
sg1315
g1316
((dp2094
I00
I3
stRp2095
sg1319
I2
sg1320
F4
sbs(g584
g545
tp2096
g1
(g1310
g3
NtRp2097
(dp2098
g1313
F0.5
sg1314
I3
sg1315
g1316
((dp2099
I00
I3
stRp2100
sg1319
I2
sg1320
F4
sbs(g352
g310
tp2101
g1
(g1310
g3
NtRp2102
(dp2103
g1313
F0.5
sg1314
I4
sg1315
g1316
((dp2104
I00
I4
stRp2105
sg1319
I2
sg1320
F5
sbs(g66
g58
tp2106
g1
(g1310
g3
NtRp2107
(dp2108
g1313
F0.5
sg1314
I7
sg1315
g1316
((dp2109
I00
I7
stRp2110
sg1319
I2
sg1320
F8
sbs(g1044
g1033
tp2111
g1
(g1310
g3
NtRp2112
(dp2113
g1313
F0.5
sg1314
I3
sg1315
g1316
((dp2114
I00
I3
stRp2115
sg1319
I2
sg1320
F4
sbs(g352
g335
tp2116
g1
(g1310
g3
NtRp2117
(dp2118
g1313
F0.5
sg1314
I4
sg1315
g1316
((dp2119
I00
I4
stRp2120
sg1319
I2
sg1320
F5
sbs(g1044
g1012
tp2121
g1
(g1310
g3
NtRp2122
(dp2123
g1313
F0.5
sg1314
I3
sg1315
g1316
((dp2124
I00
I3
stRp2125
sg1319
I2
sg1320
F4
sbs(g1044
g1020
tp2126
g1
(g1310
g3
NtRp2127
(dp2128
g1313
F0.5
sg1314
I3
sg1315
g1316
((dp2129
I00
I3
stRp2130
sg1319
I2
sg1320
F4
sbs(g1044
g994
tp2131
g1
(g1310
g3
NtRp2132
(dp2133
g1313
F0.5
sg1314
I3
sg1315
g1316
((dp2134
I00
I2
sI01
I1
stRp2135
sg1319
I2
sg1320
F4
sbs(g758
g757
tp2136
g1
(g1310
g3
NtRp2137
(dp2138
g1313
F0.5
sg1314
I5
sg1315
g1316
((dp2139
I00
I2
sI01
I3
stRp2140
sg1319
I2
sg1320
F6
sbs(g584
g571
tp2141
g1
(g1310
g3
NtRp2142
(dp2143
g1313
F0.5
sg1314
I3
sg1315
g1316
((dp2144
I00
I3
stRp2145
sg1319
I2
sg1320
F4
sbs(g352
g340
tp2146
g1
(g1310
g3
NtRp2147
(dp2148
g1313
F0.5
sg1314
I4
sg1315
g1316
((dp2149
I00
I4
stRp2150
sg1319
I2
sg1320
F5
sbs(g1044
g998
tp2151
g1
(g1310
g3
NtRp2152
(dp2153
g1313
F0.5
sg1314
I3
sg1315
g1316
((dp2154
I00
I3
stRp2155
sg1319
I2
sg1320
F4
sbs(g66
g62
tp2156
g1
(g1310
g3
NtRp2157
(dp2158
g1313
F0.5
sg1314
I7
sg1315
g1316
((dp2159
I00
I7
stRp2160
sg1319
I2
sg1320
F8
sbs(g1044
g989
tp2161
g1
(g1310
g3
NtRp2162
(dp2163
g1313
F0.5
sg1314
I3
sg1315
g1316
((dp2164
I00
I3
stRp2165
sg1319
I2
sg1320
F4
sbs(g352
g346
tp2166
g1
(g1310
g3
NtRp2167
(dp2168
g1313
F0.5
sg1314
I4
sg1315
g1316
((dp2169
I00
I4
stRp2170
sg1319
I2
sg1320
F5
sbs(g66
g22
tp2171
g1
(g1310
g3
NtRp2172
(dp2173
g1313
F0.5
sg1314
I7
sg1315
g1316
((dp2174
I00
I7
stRp2175
sg1319
I2
sg1320
F8
sbs(g1044
g1017
tp2176
g1
(g1310
g3
NtRp2177
(dp2178
g1313
F0.5
sg1314
I3
sg1315
g1316
((dp2179
I00
I3
stRp2180
sg1319
I2
sg1320
F4
sbs(g1044
g1008
tp2181
g1
(g1310
g3
NtRp2182
(dp2183
g1313
F0.5
sg1314
I3
sg1315
g1316
((dp2184
I00
I3
stRp2185
sg1319
I2
sg1320
F4
sbs(g1044
g992
tp2186
g1
(g1310
g3
NtRp2187
(dp2188
g1313
F0.5
sg1314
I3
sg1315
g1316
((dp2189
I00
I3
stRp2190
sg1319
I2
sg1320
F4
sbs(g66
g50
tp2191
g1
(g1310
g3
NtRp2192
(dp2193
g1313
F0.5
sg1314
I7
sg1315
g1316
((dp2194
I00
I7
stRp2195
sg1319
I2
sg1320
F8
sbs(g584
g581
tp2196
g1
(g1310
g3
NtRp2197
(dp2198
g1313
F0.5
sg1314
I3
sg1315
g1316
((dp2199
I00
I3
stRp2200
sg1319
I1
sg1320
F3.5
sbs(g584
g544
tp2201
g1
(g1310
g3
NtRp2202
(dp2203
g1313
F0.5
sg1314
I3
sg1315
g1316
((dp2204
I00
I1
sI01
I2
stRp2205
sg1319
I2
sg1320
F4
sbs(g584
g576
tp2206
g1
(g1310
g3
NtRp2207
(dp2208
g1313
F0.5
sg1314
I3
sg1315
g1316
((dp2209
I01
I3
stRp2210
sg1319
I2
sg1320
F4
sbs(g758
g722
tp2211
g1
(g1310
g3
NtRp2212
(dp2213
g1313
F0.5
sg1314
I5
sg1315
g1316
((dp2214
I00
I3
sI01
I2
stRp2215
sg1319
I2
sg1320
F6
sbs(g66
g30
tp2216
g1
(g1310
g3
NtRp2217
(dp2218
g1313
F0.5
sg1314
I7
sg1315
g1316
((dp2219
I00
I7
stRp2220
sg1319
I2
sg1320
F8
sbs(g584
g548
tp2221
g1
(g1310
g3
NtRp2222
(dp2223
g1313
F0.5
sg1314
I3
sg1315
g1316
((dp2224
I00
I3
stRp2225
sg1319
I2
sg1320
F4
sbs(g1044
g1005
tp2226
g1
(g1310
g3
NtRp2227
(dp2228
g1313
F0.5
sg1314
I3
sg1315
g1316
((dp2229
I00
I2
sI01
I1
stRp2230
sg1319
I2
sg1320
F4
sbs(g352
g324
tp2231
g1
(g1310
g3
NtRp2232
(dp2233
g1313
F0.5
sg1314
I4
sg1315
g1316
((dp2234
I00
I3
sI01
I1
stRp2235
sg1319
I2
sg1320
F5
sbs(g66
g27
tp2236
g1
(g1310
g3
NtRp2237
(dp2238
g1313
F0.5
sg1314
I7
sg1315
g1316
((dp2239
I00
I7
stRp2240
sg1319
I2
sg1320
F8
sbs(g1044
g1028
tp2241
g1
(g1310
g3
NtRp2242
(dp2243
g1313
F0.5
sg1314
I3
sg1315
g1316
((dp2244
I00
I3
stRp2245
sg1319
I2
sg1320
F4
sbs(g758
g706
tp2246
g1
(g1310
g3
NtRp2247
(dp2248
g1313
F0.5
sg1314
I5
sg1315
g1316
((dp2249
I00
I5
stRp2250
sg1319
I2
sg1320
F6
sbs(g584
g557
tp2251
g1
(g1310
g3
NtRp2252
(dp2253
g1313
F0.5
sg1314
I3
sg1315
g1316
((dp2254
I00
I3
stRp2255
sg1319
I2
sg1320
F4
sbs(g66
g12
tp2256
g1
(g1310
g3
NtRp2257
(dp2258
g1313
F0.5
sg1314
I7
sg1315
g1316
((dp2259
I00
I7
stRp2260
sg1319
I1
sg1320
F7.5
sbs(g352
g299
tp2261
g1
(g1310
g3
NtRp2262
(dp2263
g1313
F0.5
sg1314
I4
sg1315
g1316
((dp2264
I00
I4
stRp2265
sg1319
I2
sg1320
F5
sbs(g758
g751
tp2266
g1
(g1310
g3
NtRp2267
(dp2268
g1313
F0.5
sg1314
I5
sg1315
g1316
((dp2269
I00
I5
stRp2270
sg1319
I2
sg1320
F6
sbs(g1044
g1030
tp2271
g1
(g1310
g3
NtRp2272
(dp2273
g1313
F0.5
sg1314
I3
sg1315
g1316
((dp2274
I00
I3
stRp2275
sg1319
I2
sg1320
F4
sbs(g66
g59
tp2276
g1
(g1310
g3
NtRp2277
(dp2278
g1313
F0.5
sg1314
I7
sg1315
g1316
((dp2279
I00
I4
sI01
I3
stRp2280
sg1319
I2
sg1320
F8
sbs(g352
g317
tp2281
g1
(g1310
g3
NtRp2282
(dp2283
g1313
F0.5
sg1314
I4
sg1315
g1316
((dp2284
I00
I4
stRp2285
sg1319
I2
sg1320
F5
sbs(g66
g53
tp2286
g1
(g1310
g3
NtRp2287
(dp2288
g1313
F0.5
sg1314
I7
sg1315
g1316
((dp2289
I00
I6
sI01
I1
stRp2290
sg1319
I2
sg1320
F8
sbs(g758
g735
tp2291
g1
(g1310
g3
NtRp2292
(dp2293
g1313
F0.5
sg1314
I5
sg1315
g1316
((dp2294
I00
I5
stRp2295
sg1319
I2
sg1320
F6
sbs(g66
g38
tp2296
g1
(g1310
g3
NtRp2297
(dp2298
g1313
F0.5
sg1314
I7
sg1315
g1316
((dp2299
I00
I6
sI01
I1
stRp2300
sg1319
I2
sg1320
F8
sbs(g584
g580
tp2301
g1
(g1310
g3
NtRp2302
(dp2303
g1313
F0.5
sg1314
I3
sg1315
g1316
((dp2304
I00
I2
sI01
I1
stRp2305
sg1319
I2
sg1320
F4
sbs(g1044
g1027
tp2306
g1
(g1310
g3
NtRp2307
(dp2308
g1313
F0.5
sg1314
I3
sg1315
g1316
((dp2309
I00
I3
stRp2310
sg1319
I2
sg1320
F4
sbs(g1044
g1007
tp2311
g1
(g1310
g3
NtRp2312
(dp2313
g1313
F0.5
sg1314
I3
sg1315
g1316
((dp2314
I00
I2
sI01
I1
stRp2315
sg1319
I2
sg1320
F4
sbs(g352
g298
tp2316
g1
(g1310
g3
NtRp2317
(dp2318
g1313
F0.5
sg1314
I4
sg1315
g1316
((dp2319
I00
I4
stRp2320
sg1319
I1
sg1320
F4.5
sbs(g352
g300
tp2321
g1
(g1310
g3
NtRp2322
(dp2323
g1313
F0.5
sg1314
I4
sg1315
g1316
((dp2324
I00
I3
sI01
I1
stRp2325
sg1319
I2
sg1320
F5
sbs(g584
g582
tp2326
g1
(g1310
g3
NtRp2327
(dp2328
g1313
F0.5
sg1314
I3
sg1315
g1316
((dp2329
I00
I3
stRp2330
sg1319
I2
sg1320
F4
sbs(g758
g720
tp2331
g1
(g1310
g3
NtRp2332
(dp2333
g1313
F0.5
sg1314
I5
sg1315
g1316
((dp2334
I00
I5
stRp2335
sg1319
I2
sg1320
F6
sbs(g758
g737
tp2336
g1
(g1310
g3
NtRp2337
(dp2338
g1313
F0.5
sg1314
I5
sg1315
g1316
((dp2339
I00
I5
stRp2340
sg1319
I2
sg1320
F6
sbs(g584
g546
tp2341
g1
(g1310
g3
NtRp2342
(dp2343
g1313
F0.5
sg1314
I3
sg1315
g1316
((dp2344
I00
I3
stRp2345
sg1319
I2
sg1320
F4
sbs(g758
g715
tp2346
g1
(g1310
g3
NtRp2347
(dp2348
g1313
F0.5
sg1314
I5
sg1315
g1316
((dp2349
I00
I2
sI01
I3
stRp2350
sg1319
I2
sg1320
F6
sbs(g1044
g1021
tp2351
g1
(g1310
g3
NtRp2352
(dp2353
g1313
F0.5
sg1314
I3
sg1315
g1316
((dp2354
I00
I3
stRp2355
sg1319
I2
sg1320
F4
sbs(g352
g330
tp2356
g1
(g1310
g3
NtRp2357
(dp2358
g1313
F0.5
sg1314
I4
sg1315
g1316
((dp2359
I00
I4
stRp2360
sg1319
I2
sg1320
F5
sbs(g1044
g1042
tp2361
g1
(g1310
g3
NtRp2362
(dp2363
g1313
F0.5
sg1314
I3
sg1315
g1316
((dp2364
I00
I3
stRp2365
sg1319
I2
sg1320
F4
sbs(g584
g567
tp2366
g1
(g1310
g3
NtRp2367
(dp2368
g1313
F0.5
sg1314
I3
sg1315
g1316
((dp2369
I00
I3
stRp2370
sg1319
I2
sg1320
F4
sbs(g758
g721
tp2371
g1
(g1310
g3
NtRp2372
(dp2373
g1313
F0.5
sg1314
I5
sg1315
g1316
((dp2374
I00
I5
stRp2375
sg1319
I2
sg1320
F6
sbs(g584
g572
tp2376
g1
(g1310
g3
NtRp2377
(dp2378
g1313
F0.5
sg1314
I3
sg1315
g1316
((dp2379
I00
I3
stRp2380
sg1319
I2
sg1320
F4
sbs(g584
g547
tp2381
g1
(g1310
g3
NtRp2382
(dp2383
g1313
F0.5
sg1314
I3
sg1315
g1316
((dp2384
I00
I3
stRp2385
sg1319
I2
sg1320
F4
sbs(g758
g723
tp2386
g1
(g1310
g3
NtRp2387
(dp2388
g1313
F0.5
sg1314
I5
sg1315
g1316
((dp2389
I00
I3
sI01
I2
stRp2390
sg1319
I2
sg1320
F6
sbs(g66
g54
tp2391
g1
(g1310
g3
NtRp2392
(dp2393
g1313
F0.5
sg1314
I7
sg1315
g1316
((dp2394
I00
I7
stRp2395
sg1319
I2
sg1320
F8
sbs(g584
g553
tp2396
g1
(g1310
g3
NtRp2397
(dp2398
g1313
F0.5
sg1314
I3
sg1315
g1316
((dp2399
I00
I3
stRp2400
sg1319
I2
sg1320
F4
sbs(g66
g20
tp2401
g1
(g1310
g3
NtRp2402
(dp2403
g1313
F0.5
sg1314
I7
sg1315
g1316
((dp2404
I00
I6
sI01
I1
stRp2405
sg1319
I2
sg1320
F8
sbs(g584
g551
tp2406
g1
(g1310
g3
NtRp2407
(dp2408
g1313
F0.5
sg1314
I3
sg1315
g1316
((dp2409
I00
I2
sI01
I1
stRp2410
sg1319
I2
sg1320
F4
sbs(g352
g303
tp2411
g1
(g1310
g3
NtRp2412
(dp2413
g1313
F0.5
sg1314
I4
sg1315
g1316
((dp2414
I00
I4
stRp2415
sg1319
I2
sg1320
F5
sbs(g66
g39
tp2416
g1
(g1310
g3
NtRp2417
(dp2418
g1313
F0.5
sg1314
I7
sg1315
g1316
((dp2419
I00
I7
stRp2420
sg1319
I2
sg1320
F8
sbs(g758
g726
tp2421
g1
(g1310
g3
NtRp2422
(dp2423
g1313
F0.5
sg1314
I5
sg1315
g1316
((dp2424
I00
I3
sI01
I2
stRp2425
sg1319
I2
sg1320
F6
sbs(g352
g345
tp2426
g1
(g1310
g3
NtRp2427
(dp2428
g1313
F0.5
sg1314
I4
sg1315
g1316
((dp2429
I00
I4
stRp2430
sg1319
I2
sg1320
F5
sbs(g352
g332
tp2431
g1
(g1310
g3
NtRp2432
(dp2433
g1313
F0.5
sg1314
I4
sg1315
g1316
((dp2434
I00
I4
stRp2435
sg1319
I2
sg1320
F5
sbs(g1044
g1022
tp2436
g1
(g1310
g3
NtRp2437
(dp2438
g1313
F0.5
sg1314
I3
sg1315
g1316
((dp2439
I00
I2
sI01
I1
stRp2440
sg1319
I2
sg1320
F4
sbs(g584
g568
tp2441
g1
(g1310
g3
NtRp2442
(dp2443
g1313
F0.5
sg1314
I3
sg1315
g1316
((dp2444
I00
I3
stRp2445
sg1319
I2
sg1320
F4
sbs(g1044
g1039
tp2446
g1
(g1310
g3
NtRp2447
(dp2448
g1313
F0.5
sg1314
I3
sg1315
g1316
((dp2449
I00
I3
stRp2450
sg1319
I2
sg1320
F4
sbs(g584
g556
tp2451
g1
(g1310
g3
NtRp2452
(dp2453
g1313
F0.5
sg1314
I3
sg1315
g1316
((dp2454
I00
I3
stRp2455
sg1319
I2
sg1320
F4
sbs(g758
g730
tp2456
g1
(g1310
g3
NtRp2457
(dp2458
g1313
F0.5
sg1314
I5
sg1315
g1316
((dp2459
I00
I5
stRp2460
sg1319
I2
sg1320
F6
sbs(g352
g319
tp2461
g1
(g1310
g3
NtRp2462
(dp2463
g1313
F0.5
sg1314
I4
sg1315
g1316
((dp2464
I00
I4
stRp2465
sg1319
I2
sg1320
F5
sbs(g758
g745
tp2466
g1
(g1310
g3
NtRp2467
(dp2468
g1313
F0.5
sg1314
I5
sg1315
g1316
((dp2469
I00
I5
stRp2470
sg1319
I2
sg1320
F6
sbs(g758
g750
tp2471
g1
(g1310
g3
NtRp2472
(dp2473
g1313
F0.5
sg1314
I5
sg1315
g1316
((dp2474
I00
I3
sI01
I2
stRp2475
sg1319
I2
sg1320
F6
sbs(g66
g55
tp2476
g1
(g1310
g3
NtRp2477
(dp2478
g1313
F0.5
sg1314
I7
sg1315
g1316
((dp2479
I00
I6
sI01
I1
stRp2480
sg1319
I2
sg1320
F8
sbs(g66
g64
tp2481
g1
(g1310
g3
NtRp2482
(dp2483
g1313
F0.5
sg1314
I7
sg1315
g1316
((dp2484
I00
I7
stRp2485
sg1319
I2
sg1320
F8
sbs(g584
g564
tp2486
g1
(g1310
g3
NtRp2487
(dp2488
g1313
F0.5
sg1314
I3
sg1315
g1316
((dp2489
I00
I3
stRp2490
sg1319
I2
sg1320
F4
sbs(g584
g565
tp2491
g1
(g1310
g3
NtRp2492
(dp2493
g1313
F0.5
sg1314
I3
sg1315
g1316
((dp2494
I00
I3
stRp2495
sg1319
I2
sg1320
F4
sbs(g66
g28
tp2496
g1
(g1310
g3
NtRp2497
(dp2498
g1313
F0.5
sg1314
I7
sg1315
g1316
((dp2499
I00
I5
sI01
I2
stRp2500
sg1319
I2
sg1320
F8
sbs(g758
g739
tp2501
g1
(g1310
g3
NtRp2502
(dp2503
g1313
F0.5
sg1314
I5
sg1315
g1316
((dp2504
I00
I5
stRp2505
sg1319
I2
sg1320
F6
sbs(g66
g57
tp2506
g1
(g1310
g3
NtRp2507
(dp2508
g1313
F0.5
sg1314
I7
sg1315
g1316
((dp2509
I00
I6
sI01
I1
stRp2510
sg1319
I2
sg1320
F8
sbs(g66
g35
tp2511
g1
(g1310
g3
NtRp2512
(dp2513
g1313
F0.5
sg1314
I7
sg1315
g1316
((dp2514
I00
I7
stRp2515
sg1319
I2
sg1320
F8
sbs(g352
g307
tp2516
g1
(g1310
g3
NtRp2517
(dp2518
g1313
F0.5
sg1314
I4
sg1315
g1316
((dp2519
I00
I4
stRp2520
sg1319
I2
sg1320
F5
sbs(g66
g29
tp2521
g1
(g1310
g3
NtRp2522
(dp2523
g1313
F0.5
sg1314
I7
sg1315
g1316
((dp2524
I00
I7
stRp2525
sg1319
I2
sg1320
F8
sbs(g758
g714
tp2526
g1
(g1310
g3
NtRp2527
(dp2528
g1313
F0.5
sg1314
I5
sg1315
g1316
((dp2529
I00
I5
stRp2530
sg1319
I2
sg1320
F6
sbs(g352
g322
tp2531
g1
(g1310
g3
NtRp2532
(dp2533
g1313
F0.5
sg1314
I4
sg1315
g1316
((dp2534
I00
I4
stRp2535
sg1319
I2
sg1320
F5
sbs(g584
g530
tp2536
g1
(g1310
g3
NtRp2537
(dp2538
g1313
F0.5
sg1314
I3
sg1315
g1316
((dp2539
I00
I3
stRp2540
sg1319
I1
sg1320
F3.5
sbs(g1044
g1031
tp2541
g1
(g1310
g3
NtRp2542
(dp2543
g1313
F0.5
sg1314
I3
sg1315
g1316
((dp2544
I00
I3
stRp2545
sg1319
I2
sg1320
F4
sbs(g1044
g1015
tp2546
g1
(g1310
g3
NtRp2547
(dp2548
g1313
F0.5
sg1314
I3
sg1315
g1316
((dp2549
I00
I3
stRp2550
sg1319
I2
sg1320
F4
sbs(g352
g350
tp2551
g1
(g1310
g3
NtRp2552
(dp2553
g1313
F0.5
sg1314
I4
sg1315
g1316
((dp2554
I00
I4
stRp2555
sg1319
I2
sg1320
F5
sbs(g352
g320
tp2556
g1
(g1310
g3
NtRp2557
(dp2558
g1313
F0.5
sg1314
I4
sg1315
g1316
((dp2559
I00
I4
stRp2560
sg1319
I2
sg1320
F5
sbs(g352
g327
tp2561
g1
(g1310
g3
NtRp2562
(dp2563
g1313
F0.5
sg1314
I4
sg1315
g1316
((dp2564
I00
I4
stRp2565
sg1319
I2
sg1320
F5
sbs(g758
g733
tp2566
g1
(g1310
g3
NtRp2567
(dp2568
g1313
F0.5
sg1314
I5
sg1315
g1316
((dp2569
I00
I5
stRp2570
sg1319
I2
sg1320
F6
sbs(g352
g304
tp2571
g1
(g1310
g3
NtRp2572
(dp2573
g1313
F0.5
sg1314
I4
sg1315
g1316
((dp2574
I00
I3
sI01
I1
stRp2575
sg1319
I2
sg1320
F5
sbs(g1044
g993
tp2576
g1
(g1310
g3
NtRp2577
(dp2578
g1313
F0.5
sg1314
I3
sg1315
g1316
((dp2579
I00
I3
stRp2580
sg1319
I2
sg1320
F4
sbs(g758
g719
tp2581
g1
(g1310
g3
NtRp2582
(dp2583
g1313
F0.5
sg1314
I5
sg1315
g1316
((dp2584
I00
I2
sI01
I3
stRp2585
sg1319
I2
sg1320
F6
sbs(g1044
g1013
tp2586
g1
(g1310
g3
NtRp2587
(dp2588
g1313
F0.5
sg1314
I3
sg1315
g1316
((dp2589
I00
I3
stRp2590
sg1319
I2
sg1320
F4
sbs(g1044
g995
tp2591
g1
(g1310
g3
NtRp2592
(dp2593
g1313
F0.5
sg1314
I3
sg1315
g1316
((dp2594
I00
I3
stRp2595
sg1319
I2
sg1320
F4
sbs(g66
g36
tp2596
g1
(g1310
g3
NtRp2597
(dp2598
g1313
F0.5
sg1314
I7
sg1315
g1316
((dp2599
I00
I6
sI01
I1
stRp2600
sg1319
I2
sg1320
F8
sbs(g758
g743
tp2601
g1
(g1310
g3
NtRp2602
(dp2603
g1313
F0.5
sg1314
I5
sg1315
g1316
((dp2604
I00
I5
stRp2605
sg1319
I2
sg1320
F6
sbs(g1044
g1037
tp2606
g1
(g1310
g3
NtRp2607
(dp2608
g1313
F0.5
sg1314
I3
sg1315
g1316
((dp2609
I00
I3
stRp2610
sg1319
I2
sg1320
F4
sbs(g584
g531
tp2611
g1
(g1310
g3
NtRp2612
(dp2613
g1313
F0.5
sg1314
I3
sg1315
g1316
((dp2614
I00
I3
stRp2615
sg1319
I2
sg1320
F4
sbs(g584
g569
tp2616
g1
(g1310
g3
NtRp2617
(dp2618
g1313
F0.5
sg1314
I3
sg1315
g1316
((dp2619
I00
I3
stRp2620
sg1319
I2
sg1320
F4
sbs(g1044
g1026
tp2621
g1
(g1310
g3
NtRp2622
(dp2623
g1313
F0.5
sg1314
I3
sg1315
g1316
((dp2624
I00
I3
stRp2625
sg1319
I2
sg1320
F4
sbs(g352
g349
tp2626
g1
(g1310
g3
NtRp2627
(dp2628
g1313
F0.5
sg1314
I4
sg1315
g1316
((dp2629
I00
I4
stRp2630
sg1319
I1
sg1320
F4.5
sbs(g584
g573
tp2631
g1
(g1310
g3
NtRp2632
(dp2633
g1313
F0.5
sg1314
I3
sg1315
g1316
((dp2634
I00
I3
stRp2635
sg1319
I2
sg1320
F4
sbs(g758
g717
tp2636
g1
(g1310
g3
NtRp2637
(dp2638
g1313
F0.5
sg1314
I5
sg1315
g1316
((dp2639
I00
I5
stRp2640
sg1319
I2
sg1320
F6
sbs(g584
g537
tp2641
g1
(g1310
g3
NtRp2642
(dp2643
g1313
F0.5
sg1314
I3
sg1315
g1316
((dp2644
I00
I3
stRp2645
sg1319
I2
sg1320
F4
sbs(g584
g566
tp2646
g1
(g1310
g3
NtRp2647
(dp2648
g1313
F0.5
sg1314
I3
sg1315
g1316
((dp2649
I00
I3
stRp2650
sg1319
I2
sg1320
F4
sbs(g584
g543
tp2651
g1
(g1310
g3
NtRp2652
(dp2653
g1313
F0.5
sg1314
I3
sg1315
g1316
((dp2654
I00
I3
stRp2655
sg1319
I2
sg1320
F4
sbs(g758
g740
tp2656
g1
(g1310
g3
NtRp2657
(dp2658
g1313
F0.5
sg1314
I5
sg1315
g1316
((dp2659
I00
I3
sI01
I2
stRp2660
sg1319
I2
sg1320
F6
sbs(g352
g348
tp2661
g1
(g1310
g3
NtRp2662
(dp2663
g1313
F0.5
sg1314
I4
sg1315
g1316
((dp2664
I00
I4
stRp2665
sg1319
I2
sg1320
F5
sbs(g66
g43
tp2666
g1
(g1310
g3
NtRp2667
(dp2668
g1313
F0.5
sg1314
I7
sg1315
g1316
((dp2669
I00
I4
sI01
I3
stRp2670
sg1319
I2
sg1320
F8
sbs(g758
g756
tp2671
g1
(g1310
g3
NtRp2672
(dp2673
g1313
F0.5
sg1314
I5
sg1315
g1316
((dp2674
I00
I4
sI01
I1
stRp2675
sg1319
I2
sg1320
F6
sbs(g584
g575
tp2676
g1
(g1310
g3
NtRp2677
(dp2678
g1313
F0.5
sg1314
I3
sg1315
g1316
((dp2679
I00
I3
stRp2680
sg1319
I2
sg1320
F4
sbs(g66
g40
tp2681
g1
(g1310
g3
NtRp2682
(dp2683
g1313
F0.5
sg1314
I7
sg1315
g1316
((dp2684
I00
I7
stRp2685
sg1319
I2
sg1320
F8
sbs(g352
g302
tp2686
g1
(g1310
g3
NtRp2687
(dp2688
g1313
F0.5
sg1314
I4
sg1315
g1316
((dp2689
I00
I4
stRp2690
sg1319
I2
sg1320
F5
sbssS'_label_probdist'
p2691
g1
(g1310
g3
NtRp2692
(dp2693
g1313
F0.5
sg1314
I22
sg1315
g1316
((dp2694
g1044
I3
sg352
I4
sg758
I5
sg66
I7
sg584
I3
stRp2695
sg1319
I5
sg1320
F24.5
sbsbsb.