ccopy_reg
_reconstructor
p1
(ctextblob.classifiers
NaiveBayesClassifier
p2
c__builtin__
object
p3
NtRp4
(dp5
S'format_kwargs'
p6
(dp7
sS'train_features'
p8
(lp9
((dp10
Vcontains(going)
p11
I00
sVcontains('m)
p12
I00
sVcontains(this)
p13
I00
sVcontains(home)
p14
I00
sVcontains(night)
p15
I00
sVcontains(into)
p16
I00
sVcontains(me)
p17
I00
sVcontains(have)
p18
I00
sVcontains(how)
p19
I01
sVcontains(your)
p20
I00
sVcontains(today)
p21
I01
sVcontains(break)
p22
I00
sVcontains(the)
p23
I00
sVcontains(mail)
p24
I00
sVcontains(morning)
p25
I00
sVcontains(coffee)
p26
I00
sVcontains(down)
p27
I00
sVcontains(next)
p28
I00
sVcontains(bring)
p29
I00
sVcontains(deliver)
p30
I00
sVcontains(paper)
p31
I00
sVcontains(to)
p32
I00
sVcontains(my)
p33
I00
sVcontains(office)
p34
I00
sVcontains(is)
p35
I00
sVcontains(a)
p36
I00
sVcontains(you)
p37
I01
sVcontains(cup)
p38
I00
sVcontains(see)
p39
I00
sVcontains(pencil)
p40
I00
sVcontains(and)
p41
I00
sVcontains(up)
p42
I00
sVcontains(door)
p43
I00
sVcontains(some)
p44
I00
sVcontains(hey)
p45
I00
sVcontains(i)
p46
I00
sVcontains(letter)
p47
I00
sVcontains(of)
p48
I00
sVcontains(later)
p49
I00
sVcontains(it)
p50
I00
sVcontains(off)
p51
I00
sVcontains(good)
p52
I00
sVcontains(over)
p53
I00
sVcontains(hello)
p54
I01
sVcontains(get)
p55
I00
sVcontains(day)
p56
I00
sVcontains(go)
p57
I00
sVcontains(what)
p58
I00
sVcontains(are)
p59
I01
sVcontains(365)
p60
I00
sVcontains(room)
p61
I00
sVcontains('s)
p62
I00
sVcontains(drop)
p63
I00
sVcontains(hall)
p64
I00
sS'greeting'
p65
tp66
a((dp67
Vcontains(going)
p68
I00
sVcontains('m)
p69
I00
sVcontains(this)
p70
I00
sVcontains(home)
p71
I00
sVcontains(night)
p72
I00
sVcontains(into)
p73
I00
sVcontains(me)
p74
I00
sVcontains(have)
p75
I00
sVcontains(how)
p76
I00
sVcontains(your)
p77
I00
sVcontains(today)
p78
I00
sVcontains(break)
p79
I00
sVcontains(the)
p80
I00
sVcontains(mail)
p81
I00
sVcontains(morning)
p82
I00
sVcontains(coffee)
p83
I00
sVcontains(down)
p84
I00
sVcontains(next)
p85
I00
sVcontains(bring)
p86
I00
sVcontains(deliver)
p87
I00
sVcontains(paper)
p88
I00
sVcontains(to)
p89
I00
sVcontains(my)
p90
I00
sVcontains(office)
p91
I00
sVcontains(is)
p92
I00
sVcontains(a)
p93
I00
sVcontains(you)
p94
I00
sVcontains(cup)
p95
I00
sVcontains(see)
p96
I00
sVcontains(pencil)
p97
I00
sVcontains(and)
p98
I00
sVcontains(up)
p99
I01
sVcontains(door)
p100
I00
sVcontains(some)
p101
I00
sVcontains(hey)
p102
I00
sVcontains(i)
p103
I00
sVcontains(letter)
p104
I00
sVcontains(of)
p105
I00
sVcontains(later)
p106
I00
sVcontains(it)
p107
I00
sVcontains(off)
p108
I00
sVcontains(good)
p109
I00
sVcontains(over)
p110
I00
sVcontains(hello)
p111
I00
sVcontains(get)
p112
I00
sVcontains(day)
p113
I00
sVcontains(go)
p114
I00
sVcontains(what)
p115
I01
sVcontains(are)
p116
I00
sVcontains(365)
p117
I00
sVcontains(room)
p118
I00
sVcontains('s)
p119
I00
sVcontains(drop)
p120
I00
sVcontains(hall)
p121
I00
sg65
tp122
a((dp123
Vcontains(going)
p124
I01
sVcontains('m)
p125
I00
sVcontains(this)
p126
I00
sVcontains(home)
p127
I00
sVcontains(night)
p128
I00
sVcontains(into)
p129
I00
sVcontains(me)
p130
I00
sVcontains(have)
p131
I00
sVcontains(how)
p132
I01
sVcontains(your)
p133
I00
sVcontains(today)
p134
I00
sVcontains(break)
p135
I00
sVcontains(the)
p136
I00
sVcontains(mail)
p137
I00
sVcontains(morning)
p138
I00
sVcontains(coffee)
p139
I00
sVcontains(down)
p140
I00
sVcontains(next)
p141
I00
sVcontains(bring)
p142
I00
sVcontains(deliver)
p143
I00
sVcontains(paper)
p144
I00
sVcontains(to)
p145
I00
sVcontains(my)
p146
I00
sVcontains(office)
p147
I00
sVcontains(is)
p148
I00
sVcontains(a)
p149
I00
sVcontains(you)
p150
I00
sVcontains(cup)
p151
I00
sVcontains(see)
p152
I00
sVcontains(pencil)
p153
I00
sVcontains(and)
p154
I00
sVcontains(up)
p155
I00
sVcontains(door)
p156
I00
sVcontains(some)
p157
I00
sVcontains(hey)
p158
I00
sVcontains(i)
p159
I00
sVcontains(letter)
p160
I00
sVcontains(of)
p161
I00
sVcontains(later)
p162
I00
sVcontains(it)
p163
I01
sVcontains(off)
p164
I00
sVcontains(good)
p165
I00
sVcontains(over)
p166
I00
sVcontains(hello)
p167
I00
sVcontains(get)
p168
I00
sVcontains(day)
p169
I00
sVcontains(go)
p170
I00
sVcontains(what)
p171
I00
sVcontains(are)
p172
I00
sVcontains(365)
p173
I00
sVcontains(room)
p174
I00
sVcontains('s)
p175
I00
sVcontains(drop)
p176
I00
sVcontains(hall)
p177
I00
sg65
tp178
a((dp179
Vcontains(going)
p180
I00
sVcontains('m)
p181
I00
sVcontains(this)
p182
I00
sVcontains(home)
p183
I00
sVcontains(night)
p184
I00
sVcontains(into)
p185
I00
sVcontains(me)
p186
I00
sVcontains(have)
p187
I00
sVcontains(how)
p188
I01
sVcontains(your)
p189
I01
sVcontains(today)
p190
I00
sVcontains(break)
p191
I00
sVcontains(the)
p192
I00
sVcontains(mail)
p193
I00
sVcontains(morning)
p194
I00
sVcontains(coffee)
p195
I00
sVcontains(down)
p196
I00
sVcontains(next)
p197
I00
sVcontains(bring)
p198
I00
sVcontains(deliver)
p199
I00
sVcontains(paper)
p200
I00
sVcontains(to)
p201
I00
sVcontains(my)
p202
I00
sVcontains(office)
p203
I00
sVcontains(is)
p204
I01
sVcontains(a)
p205
I00
sVcontains(you)
p206
I00
sVcontains(cup)
p207
I00
sVcontains(see)
p208
I00
sVcontains(pencil)
p209
I00
sVcontains(and)
p210
I00
sVcontains(up)
p211
I00
sVcontains(door)
p212
I00
sVcontains(some)
p213
I00
sVcontains(hey)
p214
I01
sVcontains(i)
p215
I00
sVcontains(letter)
p216
I00
sVcontains(of)
p217
I00
sVcontains(later)
p218
I00
sVcontains(it)
p219
I00
sVcontains(off)
p220
I00
sVcontains(good)
p221
I00
sVcontains(over)
p222
I00
sVcontains(hello)
p223
I00
sVcontains(get)
p224
I00
sVcontains(day)
p225
I01
sVcontains(go)
p226
I00
sVcontains(what)
p227
I00
sVcontains(are)
p228
I00
sVcontains(365)
p229
I00
sVcontains(room)
p230
I00
sVcontains('s)
p231
I00
sVcontains(drop)
p232
I00
sVcontains(hall)
p233
I00
sg65
tp234
a((dp235
Vcontains(going)
p236
I00
sVcontains('m)
p237
I00
sVcontains(this)
p238
I00
sVcontains(home)
p239
I00
sVcontains(night)
p240
I00
sVcontains(into)
p241
I00
sVcontains(me)
p242
I00
sVcontains(have)
p243
I00
sVcontains(how)
p244
I00
sVcontains(your)
p245
I00
sVcontains(today)
p246
I00
sVcontains(break)
p247
I00
sVcontains(the)
p248
I00
sVcontains(mail)
p249
I00
sVcontains(morning)
p250
I01
sVcontains(coffee)
p251
I00
sVcontains(down)
p252
I00
sVcontains(next)
p253
I00
sVcontains(bring)
p254
I00
sVcontains(deliver)
p255
I00
sVcontains(paper)
p256
I00
sVcontains(to)
p257
I00
sVcontains(my)
p258
I00
sVcontains(office)
p259
I00
sVcontains(is)
p260
I00
sVcontains(a)
p261
I00
sVcontains(you)
p262
I00
sVcontains(cup)
p263
I00
sVcontains(see)
p264
I00
sVcontains(pencil)
p265
I00
sVcontains(and)
p266
I00
sVcontains(up)
p267
I00
sVcontains(door)
p268
I00
sVcontains(some)
p269
I00
sVcontains(hey)
p270
I00
sVcontains(i)
p271
I00
sVcontains(letter)
p272
I00
sVcontains(of)
p273
I00
sVcontains(later)
p274
I00
sVcontains(it)
p275
I00
sVcontains(off)
p276
I00
sVcontains(good)
p277
I01
sVcontains(over)
p278
I00
sVcontains(hello)
p279
I00
sVcontains(get)
p280
I00
sVcontains(day)
p281
I00
sVcontains(go)
p282
I00
sVcontains(what)
p283
I00
sVcontains(are)
p284
I00
sVcontains(365)
p285
I00
sVcontains(room)
p286
I00
sVcontains('s)
p287
I00
sVcontains(drop)
p288
I00
sVcontains(hall)
p289
I00
sg65
tp290
a((dp291
Vcontains(going)
p292
I00
sVcontains('m)
p293
I00
sVcontains(this)
p294
I00
sVcontains(home)
p295
I00
sVcontains(night)
p296
I01
sVcontains(into)
p297
I00
sVcontains(me)
p298
I00
sVcontains(have)
p299
I00
sVcontains(how)
p300
I00
sVcontains(your)
p301
I00
sVcontains(today)
p302
I00
sVcontains(break)
p303
I00
sVcontains(the)
p304
I00
sVcontains(mail)
p305
I00
sVcontains(morning)
p306
I00
sVcontains(coffee)
p307
I00
sVcontains(down)
p308
I00
sVcontains(next)
p309
I00
sVcontains(bring)
p310
I00
sVcontains(deliver)
p311
I00
sVcontains(paper)
p312
I00
sVcontains(to)
p313
I00
sVcontains(my)
p314
I00
sVcontains(office)
p315
I00
sVcontains(is)
p316
I00
sVcontains(a)
p317
I00
sVcontains(you)
p318
I00
sVcontains(cup)
p319
I00
sVcontains(see)
p320
I00
sVcontains(pencil)
p321
I00
sVcontains(and)
p322
I00
sVcontains(up)
p323
I00
sVcontains(door)
p324
I00
sVcontains(some)
p325
I00
sVcontains(hey)
p326
I00
sVcontains(i)
p327
I00
sVcontains(letter)
p328
I00
sVcontains(of)
p329
I00
sVcontains(later)
p330
I00
sVcontains(it)
p331
I00
sVcontains(off)
p332
I00
sVcontains(good)
p333
I01
sVcontains(over)
p334
I00
sVcontains(hello)
p335
I00
sVcontains(get)
p336
I00
sVcontains(day)
p337
I00
sVcontains(go)
p338
I00
sVcontains(what)
p339
I00
sVcontains(are)
p340
I00
sVcontains(365)
p341
I00
sVcontains(room)
p342
I00
sVcontains('s)
p343
I00
sVcontains(drop)
p344
I00
sVcontains(hall)
p345
I00
sS'exit'
p346
tp347
a((dp348
Vcontains(going)
p349
I01
sVcontains('m)
p350
I00
sVcontains(this)
p351
I00
sVcontains(home)
p352
I01
sVcontains(night)
p353
I00
sVcontains(into)
p354
I00
sVcontains(me)
p355
I00
sVcontains(have)
p356
I00
sVcontains(how)
p357
I00
sVcontains(your)
p358
I00
sVcontains(today)
p359
I00
sVcontains(break)
p360
I00
sVcontains(the)
p361
I00
sVcontains(mail)
p362
I00
sVcontains(morning)
p363
I00
sVcontains(coffee)
p364
I00
sVcontains(down)
p365
I00
sVcontains(next)
p366
I00
sVcontains(bring)
p367
I00
sVcontains(deliver)
p368
I00
sVcontains(paper)
p369
I00
sVcontains(to)
p370
I00
sVcontains(my)
p371
I00
sVcontains(office)
p372
I00
sVcontains(is)
p373
I00
sVcontains(a)
p374
I00
sVcontains(you)
p375
I00
sVcontains(cup)
p376
I00
sVcontains(see)
p377
I00
sVcontains(pencil)
p378
I00
sVcontains(and)
p379
I00
sVcontains(up)
p380
I00
sVcontains(door)
p381
I00
sVcontains(some)
p382
I00
sVcontains(hey)
p383
I00
sVcontains(i)
p384
I01
sVcontains(letter)
p385
I00
sVcontains(of)
p386
I00
sVcontains(later)
p387
I00
sVcontains(it)
p388
I00
sVcontains(off)
p389
I00
sVcontains(good)
p390
I00
sVcontains(over)
p391
I00
sVcontains(hello)
p392
I00
sVcontains(get)
p393
I00
sVcontains(day)
p394
I00
sVcontains(go)
p395
I00
sVcontains(what)
p396
I00
sVcontains(are)
p397
I00
sVcontains(365)
p398
I00
sVcontains(room)
p399
I00
sVcontains('s)
p400
I00
sVcontains(drop)
p401
I00
sVcontains(hall)
p402
I00
sg346
tp403
a((dp404
Vcontains(going)
p405
I00
sVcontains('m)
p406
I00
sVcontains(this)
p407
I00
sVcontains(home)
p408
I00
sVcontains(night)
p409
I00
sVcontains(into)
p410
I00
sVcontains(me)
p411
I00
sVcontains(have)
p412
I01
sVcontains(how)
p413
I00
sVcontains(your)
p414
I00
sVcontains(today)
p415
I00
sVcontains(break)
p416
I00
sVcontains(the)
p417
I00
sVcontains(mail)
p418
I00
sVcontains(morning)
p419
I00
sVcontains(coffee)
p420
I00
sVcontains(down)
p421
I00
sVcontains(next)
p422
I00
sVcontains(bring)
p423
I00
sVcontains(deliver)
p424
I00
sVcontains(paper)
p425
I00
sVcontains(to)
p426
I00
sVcontains(my)
p427
I00
sVcontains(office)
p428
I00
sVcontains(is)
p429
I00
sVcontains(a)
p430
I01
sVcontains(you)
p431
I00
sVcontains(cup)
p432
I00
sVcontains(see)
p433
I00
sVcontains(pencil)
p434
I00
sVcontains(and)
p435
I00
sVcontains(up)
p436
I00
sVcontains(door)
p437
I00
sVcontains(some)
p438
I00
sVcontains(hey)
p439
I00
sVcontains(i)
p440
I00
sVcontains(letter)
p441
I00
sVcontains(of)
p442
I00
sVcontains(later)
p443
I00
sVcontains(it)
p444
I00
sVcontains(off)
p445
I00
sVcontains(good)
p446
I01
sVcontains(over)
p447
I00
sVcontains(hello)
p448
I00
sVcontains(get)
p449
I00
sVcontains(day)
p450
I01
sVcontains(go)
p451
I00
sVcontains(what)
p452
I00
sVcontains(are)
p453
I00
sVcontains(365)
p454
I00
sVcontains(room)
p455
I00
sVcontains('s)
p456
I00
sVcontains(drop)
p457
I00
sVcontains(hall)
p458
I00
sg346
tp459
a((dp460
Vcontains(going)
p461
I00
sVcontains('m)
p462
I00
sVcontains(this)
p463
I00
sVcontains(home)
p464
I00
sVcontains(night)
p465
I00
sVcontains(into)
p466
I00
sVcontains(me)
p467
I00
sVcontains(have)
p468
I00
sVcontains(how)
p469
I00
sVcontains(your)
p470
I00
sVcontains(today)
p471
I00
sVcontains(break)
p472
I00
sVcontains(the)
p473
I00
sVcontains(mail)
p474
I00
sVcontains(morning)
p475
I00
sVcontains(coffee)
p476
I00
sVcontains(down)
p477
I00
sVcontains(next)
p478
I00
sVcontains(bring)
p479
I00
sVcontains(deliver)
p480
I00
sVcontains(paper)
p481
I00
sVcontains(to)
p482
I00
sVcontains(my)
p483
I00
sVcontains(office)
p484
I00
sVcontains(is)
p485
I00
sVcontains(a)
p486
I00
sVcontains(you)
p487
I01
sVcontains(cup)
p488
I00
sVcontains(see)
p489
I01
sVcontains(pencil)
p490
I00
sVcontains(and)
p491
I00
sVcontains(up)
p492
I00
sVcontains(door)
p493
I00
sVcontains(some)
p494
I00
sVcontains(hey)
p495
I00
sVcontains(i)
p496
I00
sVcontains(letter)
p497
I00
sVcontains(of)
p498
I00
sVcontains(later)
p499
I01
sVcontains(it)
p500
I00
sVcontains(off)
p501
I00
sVcontains(good)
p502
I00
sVcontains(over)
p503
I00
sVcontains(hello)
p504
I00
sVcontains(get)
p505
I00
sVcontains(day)
p506
I00
sVcontains(go)
p507
I00
sVcontains(what)
p508
I00
sVcontains(are)
p509
I00
sVcontains(365)
p510
I00
sVcontains(room)
p511
I00
sVcontains('s)
p512
I00
sVcontains(drop)
p513
I00
sVcontains(hall)
p514
I00
sg346
tp515
a((dp516
Vcontains(going)
p517
I00
sVcontains('m)
p518
I00
sVcontains(this)
p519
I00
sVcontains(home)
p520
I00
sVcontains(night)
p521
I00
sVcontains(into)
p522
I00
sVcontains(me)
p523
I01
sVcontains(have)
p524
I00
sVcontains(how)
p525
I00
sVcontains(your)
p526
I00
sVcontains(today)
p527
I00
sVcontains(break)
p528
I00
sVcontains(the)
p529
I00
sVcontains(mail)
p530
I00
sVcontains(morning)
p531
I00
sVcontains(coffee)
p532
I01
sVcontains(down)
p533
I00
sVcontains(next)
p534
I00
sVcontains(bring)
p535
I00
sVcontains(deliver)
p536
I00
sVcontains(paper)
p537
I00
sVcontains(to)
p538
I00
sVcontains(my)
p539
I00
sVcontains(office)
p540
I00
sVcontains(is)
p541
I00
sVcontains(a)
p542
I00
sVcontains(you)
p543
I00
sVcontains(cup)
p544
I00
sVcontains(see)
p545
I00
sVcontains(pencil)
p546
I00
sVcontains(and)
p547
I01
sVcontains(up)
p548
I00
sVcontains(door)
p549
I00
sVcontains(some)
p550
I01
sVcontains(hey)
p551
I00
sVcontains(i)
p552
I00
sVcontains(letter)
p553
I00
sVcontains(of)
p554
I00
sVcontains(later)
p555
I00
sVcontains(it)
p556
I00
sVcontains(off)
p557
I00
sVcontains(good)
p558
I00
sVcontains(over)
p559
I00
sVcontains(hello)
p560
I00
sVcontains(get)
p561
I01
sVcontains(day)
p562
I00
sVcontains(go)
p563
I01
sVcontains(what)
p564
I00
sVcontains(are)
p565
I00
sVcontains(365)
p566
I00
sVcontains(room)
p567
I00
sVcontains('s)
p568
I00
sVcontains(drop)
p569
I00
sVcontains(hall)
p570
I00
sS'get'
p571
tp572
a((dp573
Vcontains(going)
p574
I00
sVcontains('m)
p575
I00
sVcontains(this)
p576
I00
sVcontains(home)
p577
I00
sVcontains(night)
p578
I00
sVcontains(into)
p579
I00
sVcontains(me)
p580
I01
sVcontains(have)
p581
I00
sVcontains(how)
p582
I00
sVcontains(your)
p583
I00
sVcontains(today)
p584
I00
sVcontains(break)
p585
I00
sVcontains(the)
p586
I00
sVcontains(mail)
p587
I00
sVcontains(morning)
p588
I00
sVcontains(coffee)
p589
I00
sVcontains(down)
p590
I00
sVcontains(next)
p591
I00
sVcontains(bring)
p592
I00
sVcontains(deliver)
p593
I00
sVcontains(paper)
p594
I00
sVcontains(to)
p595
I00
sVcontains(my)
p596
I00
sVcontains(office)
p597
I00
sVcontains(is)
p598
I00
sVcontains(a)
p599
I01
sVcontains(you)
p600
I00
sVcontains(cup)
p601
I00
sVcontains(see)
p602
I00
sVcontains(pencil)
p603
I01
sVcontains(and)
p604
I01
sVcontains(up)
p605
I00
sVcontains(door)
p606
I00
sVcontains(some)
p607
I00
sVcontains(hey)
p608
I00
sVcontains(i)
p609
I00
sVcontains(letter)
p610
I00
sVcontains(of)
p611
I00
sVcontains(later)
p612
I00
sVcontains(it)
p613
I00
sVcontains(off)
p614
I00
sVcontains(good)
p615
I00
sVcontains(over)
p616
I00
sVcontains(hello)
p617
I00
sVcontains(get)
p618
I01
sVcontains(day)
p619
I00
sVcontains(go)
p620
I01
sVcontains(what)
p621
I00
sVcontains(are)
p622
I00
sVcontains(365)
p623
I00
sVcontains(room)
p624
I00
sVcontains('s)
p625
I00
sVcontains(drop)
p626
I00
sVcontains(hall)
p627
I00
sg571
tp628
a((dp629
Vcontains(going)
p630
I00
sVcontains('m)
p631
I00
sVcontains(this)
p632
I00
sVcontains(home)
p633
I00
sVcontains(night)
p634
I00
sVcontains(into)
p635
I00
sVcontains(me)
p636
I00
sVcontains(have)
p637
I00
sVcontains(how)
p638
I00
sVcontains(your)
p639
I00
sVcontains(today)
p640
I00
sVcontains(break)
p641
I01
sVcontains(the)
p642
I01
sVcontains(mail)
p643
I00
sVcontains(morning)
p644
I00
sVcontains(coffee)
p645
I01
sVcontains(down)
p646
I00
sVcontains(next)
p647
I00
sVcontains(bring)
p648
I00
sVcontains(deliver)
p649
I00
sVcontains(paper)
p650
I00
sVcontains(to)
p651
I01
sVcontains(my)
p652
I01
sVcontains(office)
p653
I00
sVcontains(is)
p654
I00
sVcontains(a)
p655
I00
sVcontains(you)
p656
I00
sVcontains(cup)
p657
I00
sVcontains(see)
p658
I00
sVcontains(pencil)
p659
I00
sVcontains(and)
p660
I01
sVcontains(up)
p661
I00
sVcontains(door)
p662
I00
sVcontains(some)
p663
I00
sVcontains(hey)
p664
I00
sVcontains(i)
p665
I00
sVcontains(letter)
p666
I00
sVcontains(of)
p667
I00
sVcontains(later)
p668
I00
sVcontains(it)
p669
I00
sVcontains(off)
p670
I00
sVcontains(good)
p671
I00
sVcontains(over)
p672
I00
sVcontains(hello)
p673
I00
sVcontains(get)
p674
I01
sVcontains(day)
p675
I00
sVcontains(go)
p676
I01
sVcontains(what)
p677
I00
sVcontains(are)
p678
I00
sVcontains(365)
p679
I00
sVcontains(room)
p680
I01
sVcontains('s)
p681
I00
sVcontains(drop)
p682
I00
sVcontains(hall)
p683
I00
sg571
tp684
a((dp685
Vcontains(going)
p686
I00
sVcontains('m)
p687
I00
sVcontains(this)
p688
I01
sVcontains(home)
p689
I00
sVcontains(night)
p690
I00
sVcontains(into)
p691
I00
sVcontains(me)
p692
I00
sVcontains(have)
p693
I00
sVcontains(how)
p694
I00
sVcontains(your)
p695
I00
sVcontains(today)
p696
I00
sVcontains(break)
p697
I00
sVcontains(the)
p698
I01
sVcontains(mail)
p699
I01
sVcontains(morning)
p700
I00
sVcontains(coffee)
p701
I00
sVcontains(down)
p702
I01
sVcontains(next)
p703
I00
sVcontains(bring)
p704
I00
sVcontains(deliver)
p705
I01
sVcontains(paper)
p706
I00
sVcontains(to)
p707
I01
sVcontains(my)
p708
I00
sVcontains(office)
p709
I00
sVcontains(is)
p710
I00
sVcontains(a)
p711
I00
sVcontains(you)
p712
I00
sVcontains(cup)
p713
I00
sVcontains(see)
p714
I00
sVcontains(pencil)
p715
I00
sVcontains(and)
p716
I01
sVcontains(up)
p717
I00
sVcontains(door)
p718
I00
sVcontains(some)
p719
I00
sVcontains(hey)
p720
I00
sVcontains(i)
p721
I00
sVcontains(letter)
p722
I00
sVcontains(of)
p723
I00
sVcontains(later)
p724
I00
sVcontains(it)
p725
I00
sVcontains(off)
p726
I00
sVcontains(good)
p727
I00
sVcontains(over)
p728
I00
sVcontains(hello)
p729
I00
sVcontains(get)
p730
I00
sVcontains(day)
p731
I00
sVcontains(go)
p732
I01
sVcontains(what)
p733
I00
sVcontains(are)
p734
I00
sVcontains(365)
p735
I00
sVcontains(room)
p736
I01
sVcontains('s)
p737
I00
sVcontains(drop)
p738
I00
sVcontains(hall)
p739
I01
sS'deliver'
p740
tp741
a((dp742
Vcontains(going)
p743
I00
sVcontains('m)
p744
I00
sVcontains(this)
p745
I01
sVcontains(home)
p746
I00
sVcontains(night)
p747
I00
sVcontains(into)
p748
I00
sVcontains(me)
p749
I00
sVcontains(have)
p750
I00
sVcontains(how)
p751
I00
sVcontains(your)
p752
I00
sVcontains(today)
p753
I00
sVcontains(break)
p754
I00
sVcontains(the)
p755
I00
sVcontains(mail)
p756
I00
sVcontains(morning)
p757
I00
sVcontains(coffee)
p758
I00
sVcontains(down)
p759
I00
sVcontains(next)
p760
I00
sVcontains(bring)
p761
I00
sVcontains(deliver)
p762
I00
sVcontains(paper)
p763
I01
sVcontains(to)
p764
I01
sVcontains(my)
p765
I01
sVcontains(office)
p766
I01
sVcontains(is)
p767
I00
sVcontains(a)
p768
I00
sVcontains(you)
p769
I00
sVcontains(cup)
p770
I00
sVcontains(see)
p771
I00
sVcontains(pencil)
p772
I00
sVcontains(and)
p773
I01
sVcontains(up)
p774
I00
sVcontains(door)
p775
I00
sVcontains(some)
p776
I00
sVcontains(hey)
p777
I00
sVcontains(i)
p778
I00
sVcontains(letter)
p779
I00
sVcontains(of)
p780
I00
sVcontains(later)
p781
I00
sVcontains(it)
p782
I00
sVcontains(off)
p783
I01
sVcontains(good)
p784
I00
sVcontains(over)
p785
I00
sVcontains(hello)
p786
I00
sVcontains(get)
p787
I00
sVcontains(day)
p788
I00
sVcontains(go)
p789
I01
sVcontains(what)
p790
I00
sVcontains(are)
p791
I00
sVcontains(365)
p792
I00
sVcontains(room)
p793
I00
sVcontains('s)
p794
I00
sVcontains(drop)
p795
I01
sVcontains(hall)
p796
I00
sg740
tp797
a((dp798
Vcontains(going)
p799
I00
sVcontains('m)
p800
I00
sVcontains(this)
p801
I01
sVcontains(home)
p802
I00
sVcontains(night)
p803
I00
sVcontains(into)
p804
I00
sVcontains(me)
p805
I00
sVcontains(have)
p806
I00
sVcontains(how)
p807
I00
sVcontains(your)
p808
I00
sVcontains(today)
p809
I00
sVcontains(break)
p810
I00
sVcontains(the)
p811
I01
sVcontains(mail)
p812
I00
sVcontains(morning)
p813
I00
sVcontains(coffee)
p814
I01
sVcontains(down)
p815
I01
sVcontains(next)
p816
I00
sVcontains(bring)
p817
I01
sVcontains(deliver)
p818
I00
sVcontains(paper)
p819
I00
sVcontains(to)
p820
I01
sVcontains(my)
p821
I01
sVcontains(office)
p822
I01
sVcontains(is)
p823
I00
sVcontains(a)
p824
I00
sVcontains(you)
p825
I00
sVcontains(cup)
p826
I01
sVcontains(see)
p827
I00
sVcontains(pencil)
p828
I00
sVcontains(and)
p829
I00
sVcontains(up)
p830
I00
sVcontains(door)
p831
I00
sVcontains(some)
p832
I00
sVcontains(hey)
p833
I00
sVcontains(i)
p834
I00
sVcontains(letter)
p835
I00
sVcontains(of)
p836
I01
sVcontains(later)
p837
I00
sVcontains(it)
p838
I00
sVcontains(off)
p839
I00
sVcontains(good)
p840
I00
sVcontains(over)
p841
I00
sVcontains(hello)
p842
I00
sVcontains(get)
p843
I00
sVcontains(day)
p844
I00
sVcontains(go)
p845
I00
sVcontains(what)
p846
I00
sVcontains(are)
p847
I00
sVcontains(365)
p848
I00
sVcontains(room)
p849
I00
sVcontains('s)
p850
I00
sVcontains(drop)
p851
I00
sVcontains(hall)
p852
I01
sg740
tp853
a((dp854
Vcontains(going)
p855
I00
sVcontains('m)
p856
I00
sVcontains(this)
p857
I01
sVcontains(home)
p858
I00
sVcontains(night)
p859
I00
sVcontains(into)
p860
I00
sVcontains(me)
p861
I00
sVcontains(have)
p862
I00
sVcontains(how)
p863
I00
sVcontains(your)
p864
I00
sVcontains(today)
p865
I00
sVcontains(break)
p866
I00
sVcontains(the)
p867
I01
sVcontains(mail)
p868
I01
sVcontains(morning)
p869
I00
sVcontains(coffee)
p870
I00
sVcontains(down)
p871
I01
sVcontains(next)
p872
I00
sVcontains(bring)
p873
I01
sVcontains(deliver)
p874
I00
sVcontains(paper)
p875
I00
sVcontains(to)
p876
I01
sVcontains(my)
p877
I00
sVcontains(office)
p878
I00
sVcontains(is)
p879
I00
sVcontains(a)
p880
I00
sVcontains(you)
p881
I00
sVcontains(cup)
p882
I00
sVcontains(see)
p883
I00
sVcontains(pencil)
p884
I00
sVcontains(and)
p885
I00
sVcontains(up)
p886
I00
sVcontains(door)
p887
I00
sVcontains(some)
p888
I00
sVcontains(hey)
p889
I00
sVcontains(i)
p890
I00
sVcontains(letter)
p891
I01
sVcontains(of)
p892
I00
sVcontains(later)
p893
I00
sVcontains(it)
p894
I00
sVcontains(off)
p895
I00
sVcontains(good)
p896
I00
sVcontains(over)
p897
I00
sVcontains(hello)
p898
I00
sVcontains(get)
p899
I00
sVcontains(day)
p900
I00
sVcontains(go)
p901
I00
sVcontains(what)
p902
I00
sVcontains(are)
p903
I00
sVcontains(365)
p904
I00
sVcontains(room)
p905
I01
sVcontains('s)
p906
I00
sVcontains(drop)
p907
I00
sVcontains(hall)
p908
I01
sg740
tp909
a((dp910
Vcontains(going)
p911
I00
sVcontains('m)
p912
I00
sVcontains(this)
p913
I01
sVcontains(home)
p914
I00
sVcontains(night)
p915
I00
sVcontains(into)
p916
I00
sVcontains(me)
p917
I00
sVcontains(have)
p918
I00
sVcontains(how)
p919
I00
sVcontains(your)
p920
I00
sVcontains(today)
p921
I00
sVcontains(break)
p922
I00
sVcontains(the)
p923
I00
sVcontains(mail)
p924
I00
sVcontains(morning)
p925
I00
sVcontains(coffee)
p926
I00
sVcontains(down)
p927
I00
sVcontains(next)
p928
I00
sVcontains(bring)
p929
I00
sVcontains(deliver)
p930
I01
sVcontains(paper)
p931
I00
sVcontains(to)
p932
I01
sVcontains(my)
p933
I00
sVcontains(office)
p934
I00
sVcontains(is)
p935
I00
sVcontains(a)
p936
I00
sVcontains(you)
p937
I00
sVcontains(cup)
p938
I00
sVcontains(see)
p939
I00
sVcontains(pencil)
p940
I00
sVcontains(and)
p941
I00
sVcontains(up)
p942
I00
sVcontains(door)
p943
I00
sVcontains(some)
p944
I00
sVcontains(hey)
p945
I00
sVcontains(i)
p946
I00
sVcontains(letter)
p947
I01
sVcontains(of)
p948
I00
sVcontains(later)
p949
I00
sVcontains(it)
p950
I00
sVcontains(off)
p951
I00
sVcontains(good)
p952
I00
sVcontains(over)
p953
I00
sVcontains(hello)
p954
I00
sVcontains(get)
p955
I00
sVcontains(day)
p956
I00
sVcontains(go)
p957
I00
sVcontains(what)
p958
I00
sVcontains(are)
p959
I00
sVcontains(365)
p960
I01
sVcontains(room)
p961
I01
sVcontains('s)
p962
I00
sVcontains(drop)
p963
I00
sVcontains(hall)
p964
I00
sg740
tp965
a((dp966
Vcontains(going)
p967
I00
sVcontains('m)
p968
I00
sVcontains(this)
p969
I00
sVcontains(home)
p970
I00
sVcontains(night)
p971
I00
sVcontains(into)
p972
I00
sVcontains(me)
p973
I00
sVcontains(have)
p974
I00
sVcontains(how)
p975
I00
sVcontains(your)
p976
I00
sVcontains(today)
p977
I00
sVcontains(break)
p978
I01
sVcontains(the)
p979
I01
sVcontains(mail)
p980
I00
sVcontains(morning)
p981
I00
sVcontains(coffee)
p982
I00
sVcontains(down)
p983
I00
sVcontains(next)
p984
I00
sVcontains(bring)
p985
I00
sVcontains(deliver)
p986
I00
sVcontains(paper)
p987
I00
sVcontains(to)
p988
I01
sVcontains(my)
p989
I00
sVcontains(office)
p990
I00
sVcontains(is)
p991
I00
sVcontains(a)
p992
I00
sVcontains(you)
p993
I00
sVcontains(cup)
p994
I00
sVcontains(see)
p995
I00
sVcontains(pencil)
p996
I00
sVcontains(and)
p997
I00
sVcontains(up)
p998
I00
sVcontains(door)
p999
I00
sVcontains(some)
p1000
I00
sVcontains(hey)
p1001
I00
sVcontains(i)
p1002
I00
sVcontains(letter)
p1003
I00
sVcontains(of)
p1004
I00
sVcontains(later)
p1005
I00
sVcontains(it)
p1006
I00
sVcontains(off)
p1007
I00
sVcontains(good)
p1008
I00
sVcontains(over)
p1009
I01
sVcontains(hello)
p1010
I00
sVcontains(get)
p1011
I00
sVcontains(day)
p1012
I00
sVcontains(go)
p1013
I01
sVcontains(what)
p1014
I00
sVcontains(are)
p1015
I00
sVcontains(365)
p1016
I00
sVcontains(room)
p1017
I01
sVcontains('s)
p1018
I00
sVcontains(drop)
p1019
I00
sVcontains(hall)
p1020
I00
sS'go'
p1021
tp1022
a((dp1023
Vcontains(going)
p1024
I00
sVcontains('m)
p1025
I00
sVcontains(this)
p1026
I00
sVcontains(home)
p1027
I00
sVcontains(night)
p1028
I00
sVcontains(into)
p1029
I00
sVcontains(me)
p1030
I00
sVcontains(have)
p1031
I00
sVcontains(how)
p1032
I00
sVcontains(your)
p1033
I00
sVcontains(today)
p1034
I00
sVcontains(break)
p1035
I00
sVcontains(the)
p1036
I01
sVcontains(mail)
p1037
I00
sVcontains(morning)
p1038
I00
sVcontains(coffee)
p1039
I00
sVcontains(down)
p1040
I01
sVcontains(next)
p1041
I00
sVcontains(bring)
p1042
I00
sVcontains(deliver)
p1043
I00
sVcontains(paper)
p1044
I00
sVcontains(to)
p1045
I00
sVcontains(my)
p1046
I00
sVcontains(office)
p1047
I00
sVcontains(is)
p1048
I00
sVcontains(a)
p1049
I00
sVcontains(you)
p1050
I00
sVcontains(cup)
p1051
I00
sVcontains(see)
p1052
I00
sVcontains(pencil)
p1053
I00
sVcontains(and)
p1054
I00
sVcontains(up)
p1055
I00
sVcontains(door)
p1056
I00
sVcontains(some)
p1057
I00
sVcontains(hey)
p1058
I00
sVcontains(i)
p1059
I00
sVcontains(letter)
p1060
I00
sVcontains(of)
p1061
I00
sVcontains(later)
p1062
I00
sVcontains(it)
p1063
I00
sVcontains(off)
p1064
I00
sVcontains(good)
p1065
I00
sVcontains(over)
p1066
I00
sVcontains(hello)
p1067
I00
sVcontains(get)
p1068
I00
sVcontains(day)
p1069
I00
sVcontains(go)
p1070
I01
sVcontains(what)
p1071
I00
sVcontains(are)
p1072
I00
sVcontains(365)
p1073
I00
sVcontains(room)
p1074
I00
sVcontains('s)
p1075
I00
sVcontains(drop)
p1076
I00
sVcontains(hall)
p1077
I01
sg1021
tp1078
a((dp1079
Vcontains(going)
p1080
I00
sVcontains('m)
p1081
I00
sVcontains(this)
p1082
I00
sVcontains(home)
p1083
I00
sVcontains(night)
p1084
I00
sVcontains(into)
p1085
I01
sVcontains(me)
p1086
I00
sVcontains(have)
p1087
I00
sVcontains(how)
p1088
I00
sVcontains(your)
p1089
I00
sVcontains(today)
p1090
I00
sVcontains(break)
p1091
I00
sVcontains(the)
p1092
I01
sVcontains(mail)
p1093
I00
sVcontains(morning)
p1094
I00
sVcontains(coffee)
p1095
I00
sVcontains(down)
p1096
I00
sVcontains(next)
p1097
I01
sVcontains(bring)
p1098
I00
sVcontains(deliver)
p1099
I00
sVcontains(paper)
p1100
I00
sVcontains(to)
p1101
I00
sVcontains(my)
p1102
I00
sVcontains(office)
p1103
I00
sVcontains(is)
p1104
I00
sVcontains(a)
p1105
I00
sVcontains(you)
p1106
I00
sVcontains(cup)
p1107
I00
sVcontains(see)
p1108
I00
sVcontains(pencil)
p1109
I00
sVcontains(and)
p1110
I00
sVcontains(up)
p1111
I00
sVcontains(door)
p1112
I01
sVcontains(some)
p1113
I00
sVcontains(hey)
p1114
I00
sVcontains(i)
p1115
I00
sVcontains(letter)
p1116
I00
sVcontains(of)
p1117
I00
sVcontains(later)
p1118
I00
sVcontains(it)
p1119
I00
sVcontains(off)
p1120
I00
sVcontains(good)
p1121
I00
sVcontains(over)
p1122
I00
sVcontains(hello)
p1123
I00
sVcontains(get)
p1124
I00
sVcontains(day)
p1125
I00
sVcontains(go)
p1126
I01
sVcontains(what)
p1127
I00
sVcontains(are)
p1128
I00
sVcontains(365)
p1129
I00
sVcontains(room)
p1130
I01
sVcontains('s)
p1131
I00
sVcontains(drop)
p1132
I00
sVcontains(hall)
p1133
I00
sg1021
tp1134
a((dp1135
Vcontains(going)
p1136
I00
sVcontains('m)
p1137
I00
sVcontains(this)
p1138
I00
sVcontains(home)
p1139
I00
sVcontains(night)
p1140
I00
sVcontains(into)
p1141
I00
sVcontains(me)
p1142
I00
sVcontains(have)
p1143
I00
sVcontains(how)
p1144
I00
sVcontains(your)
p1145
I00
sVcontains(today)
p1146
I00
sVcontains(break)
p1147
I00
sVcontains(the)
p1148
I00
sVcontains(mail)
p1149
I00
sVcontains(morning)
p1150
I00
sVcontains(coffee)
p1151
I00
sVcontains(down)
p1152
I00
sVcontains(next)
p1153
I00
sVcontains(bring)
p1154
I00
sVcontains(deliver)
p1155
I00
sVcontains(paper)
p1156
I00
sVcontains(to)
p1157
I00
sVcontains(my)
p1158
I00
sVcontains(office)
p1159
I00
sVcontains(is)
p1160
I00
sVcontains(a)
p1161
I00
sVcontains(you)
p1162
I00
sVcontains(cup)
p1163
I00
sVcontains(see)
p1164
I00
sVcontains(pencil)
p1165
I00
sVcontains(and)
p1166
I00
sVcontains(up)
p1167
I00
sVcontains(door)
p1168
I00
sVcontains(some)
p1169
I00
sVcontains(hey)
p1170
I00
sVcontains(i)
p1171
I00
sVcontains(letter)
p1172
I00
sVcontains(of)
p1173
I00
sVcontains(later)
p1174
I00
sVcontains(it)
p1175
I00
sVcontains(off)
p1176
I00
sVcontains(good)
p1177
I00
sVcontains(over)
p1178
I00
sVcontains(hello)
p1179
I01
sVcontains(get)
p1180
I00
sVcontains(day)
p1181
I00
sVcontains(go)
p1182
I00
sVcontains(what)
p1183
I00
sVcontains(are)
p1184
I00
sVcontains(365)
p1185
I00
sVcontains(room)
p1186
I00
sVcontains('s)
p1187
I00
sVcontains(drop)
p1188
I00
sVcontains(hall)
p1189
I00
sg65
tp1190
a((dp1191
Vcontains(going)
p1192
I00
sVcontains('m)
p1193
I00
sVcontains(this)
p1194
I00
sVcontains(home)
p1195
I00
sVcontains(night)
p1196
I00
sVcontains(into)
p1197
I00
sVcontains(me)
p1198
I00
sVcontains(have)
p1199
I00
sVcontains(how)
p1200
I00
sVcontains(your)
p1201
I00
sVcontains(today)
p1202
I00
sVcontains(break)
p1203
I00
sVcontains(the)
p1204
I00
sVcontains(mail)
p1205
I00
sVcontains(morning)
p1206
I00
sVcontains(coffee)
p1207
I00
sVcontains(down)
p1208
I00
sVcontains(next)
p1209
I00
sVcontains(bring)
p1210
I00
sVcontains(deliver)
p1211
I00
sVcontains(paper)
p1212
I00
sVcontains(to)
p1213
I00
sVcontains(my)
p1214
I00
sVcontains(office)
p1215
I00
sVcontains(is)
p1216
I00
sVcontains(a)
p1217
I00
sVcontains(you)
p1218
I00
sVcontains(cup)
p1219
I00
sVcontains(see)
p1220
I00
sVcontains(pencil)
p1221
I00
sVcontains(and)
p1222
I00
sVcontains(up)
p1223
I00
sVcontains(door)
p1224
I00
sVcontains(some)
p1225
I00
sVcontains(hey)
p1226
I00
sVcontains(i)
p1227
I00
sVcontains(letter)
p1228
I00
sVcontains(of)
p1229
I00
sVcontains(later)
p1230
I00
sVcontains(it)
p1231
I00
sVcontains(off)
p1232
I00
sVcontains(good)
p1233
I00
sVcontains(over)
p1234
I00
sVcontains(hello)
p1235
I01
sVcontains(get)
p1236
I00
sVcontains(day)
p1237
I00
sVcontains(go)
p1238
I00
sVcontains(what)
p1239
I00
sVcontains(are)
p1240
I00
sVcontains(365)
p1241
I00
sVcontains(room)
p1242
I00
sVcontains('s)
p1243
I00
sVcontains(drop)
p1244
I00
sVcontains(hall)
p1245
I00
sg65
tp1246
a((dp1247
Vcontains(going)
p1248
I00
sVcontains('m)
p1249
I00
sVcontains(this)
p1250
I00
sVcontains(home)
p1251
I00
sVcontains(night)
p1252
I00
sVcontains(into)
p1253
I00
sVcontains(me)
p1254
I00
sVcontains(have)
p1255
I00
sVcontains(how)
p1256
I00
sVcontains(your)
p1257
I00
sVcontains(today)
p1258
I00
sVcontains(break)
p1259
I00
sVcontains(the)
p1260
I00
sVcontains(mail)
p1261
I00
sVcontains(morning)
p1262
I00
sVcontains(coffee)
p1263
I00
sVcontains(down)
p1264
I00
sVcontains(next)
p1265
I00
sVcontains(bring)
p1266
I00
sVcontains(deliver)
p1267
I00
sVcontains(paper)
p1268
I00
sVcontains(to)
p1269
I00
sVcontains(my)
p1270
I00
sVcontains(office)
p1271
I00
sVcontains(is)
p1272
I00
sVcontains(a)
p1273
I00
sVcontains(you)
p1274
I00
sVcontains(cup)
p1275
I00
sVcontains(see)
p1276
I00
sVcontains(pencil)
p1277
I00
sVcontains(and)
p1278
I00
sVcontains(up)
p1279
I00
sVcontains(door)
p1280
I00
sVcontains(some)
p1281
I00
sVcontains(hey)
p1282
I00
sVcontains(i)
p1283
I00
sVcontains(letter)
p1284
I00
sVcontains(of)
p1285
I00
sVcontains(later)
p1286
I00
sVcontains(it)
p1287
I00
sVcontains(off)
p1288
I00
sVcontains(good)
p1289
I00
sVcontains(over)
p1290
I00
sVcontains(hello)
p1291
I01
sVcontains(get)
p1292
I00
sVcontains(day)
p1293
I00
sVcontains(go)
p1294
I00
sVcontains(what)
p1295
I00
sVcontains(are)
p1296
I00
sVcontains(365)
p1297
I00
sVcontains(room)
p1298
I00
sVcontains('s)
p1299
I00
sVcontains(drop)
p1300
I00
sVcontains(hall)
p1301
I00
sg65
tp1302
a((dp1303
Vcontains(going)
p1304
I00
sVcontains('m)
p1305
I00
sVcontains(this)
p1306
I00
sVcontains(home)
p1307
I00
sVcontains(night)
p1308
I00
sVcontains(into)
p1309
I00
sVcontains(me)
p1310
I00
sVcontains(have)
p1311
I00
sVcontains(how)
p1312
I00
sVcontains(your)
p1313
I00
sVcontains(today)
p1314
I00
sVcontains(break)
p1315
I00
sVcontains(the)
p1316
I00
sVcontains(mail)
p1317
I00
sVcontains(morning)
p1318
I00
sVcontains(coffee)
p1319
I00
sVcontains(down)
p1320
I00
sVcontains(next)
p1321
I00
sVcontains(bring)
p1322
I00
sVcontains(deliver)
p1323
I00
sVcontains(paper)
p1324
I00
sVcontains(to)
p1325
I00
sVcontains(my)
p1326
I00
sVcontains(office)
p1327
I00
sVcontains(is)
p1328
I00
sVcontains(a)
p1329
I00
sVcontains(you)
p1330
I00
sVcontains(cup)
p1331
I00
sVcontains(see)
p1332
I00
sVcontains(pencil)
p1333
I00
sVcontains(and)
p1334
I00
sVcontains(up)
p1335
I00
sVcontains(door)
p1336
I00
sVcontains(some)
p1337
I00
sVcontains(hey)
p1338
I00
sVcontains(i)
p1339
I00
sVcontains(letter)
p1340
I00
sVcontains(of)
p1341
I00
sVcontains(later)
p1342
I00
sVcontains(it)
p1343
I00
sVcontains(off)
p1344
I00
sVcontains(good)
p1345
I00
sVcontains(over)
p1346
I00
sVcontains(hello)
p1347
I01
sVcontains(get)
p1348
I00
sVcontains(day)
p1349
I00
sVcontains(go)
p1350
I00
sVcontains(what)
p1351
I00
sVcontains(are)
p1352
I00
sVcontains(365)
p1353
I00
sVcontains(room)
p1354
I00
sVcontains('s)
p1355
I00
sVcontains(drop)
p1356
I00
sVcontains(hall)
p1357
I00
sg65
tp1358
asS'train_set'
p1359
(lp1360
(S'hello how are you today'
g65
tp1361
a(S"what's up"
g65
tp1362
a(S"how's it going?"
g65
tp1363
a(S'hey how is your day'
g65
tp1364
a(S'good morning'
g65
tp1365
a(S'good night'
g346
tp1366
a(S"i'm going home"
g346
tp1367
a(S'have a good day'
g346
tp1368
a(S'see you later'
g346
tp1369
a(S'go and get me some coffee'
g571
tp1370
a(S'go and get me a pencil'
g571
tp1371
a(S'go to the break room and get my coffee'
g571
tp1372
a(S'go down the hall and deliver this to the mail room'
g740
tp1373
a(S'go to my office and drop off this paper'
g740
tp1374
a(S'bring this cup of coffee down the hall to my office'
g740
tp1375
a(S'bring this letter to the mail room down the hall'
g740
tp1376
a(S'deliver this letter to room 365'
g740
tp1377
a(S'go over to the break room'
g1021
tp1378
a(S'go down the hall'
g1021
tp1379
a(S'go into the room next door'
g1021
tp1380
a(S'hello'
g65
tp1381
a(S'hello'
g65
tp1382
a(S'hello'
g65
tp1383
a(S'hello'
p1384
g65
tp1385
asS'feature_extractor'
p1386
ctextblob.classifiers
basic_extractor
p1387
sS'classifier'
p1388
g1
(cnltk.classify.naivebayes
NaiveBayesClassifier
p1389
g3
NtRp1390
(dp1391
S'_labels'
p1392
(lp1393
g1021
ag740
ag346
ag65
ag571
asS'_feature_probdist'
p1394
(dp1395
(g346
g301
tp1396
g1
(cnltk.probability
ELEProbDist
p1397
g3
NtRp1398
(dp1399
S'_gamma'
p1400
F0.5
sS'_N'
p1401
I4
sS'_freqdist'
p1402
cnltk.probability
FreqDist
p1403
((dp1404
I00
I4
stRp1405
sS'_bins'
p1406
I2
sS'_divisor'
p1407
F5
sbs(g65
g19
tp1408
g1
(g1397
g3
NtRp1409
(dp1410
g1400
F0.5
sg1401
I9
sg1402
g1403
((dp1411
I00
I6
sI01
I3
stRp1412
sg1406
I2
sg1407
F10
sbs(g740
g691
tp1413
g1
(g1397
g3
NtRp1414
(dp1415
g1400
F0.5
sg1401
I5
sg1402
g1403
((dp1416
I00
I5
stRp1417
sg1406
I2
sg1407
F6
sbs(g740
g699
tp1418
g1
(g1397
g3
NtRp1419
(dp1420
g1400
F0.5
sg1401
I5
sg1402
g1403
((dp1421
I00
I3
sI01
I2
stRp1422
sg1406
I2
sg1407
F6
sbs(g65
g48
tp1423
g1
(g1397
g3
NtRp1424
(dp1425
g1400
F0.5
sg1401
I9
sg1402
g1403
((dp1426
I00
I9
stRp1427
sg1406
I2
sg1407
F10
sbs(g1021
g981
tp1428
g1
(g1397
g3
NtRp1429
(dp1430
g1400
F0.5
sg1401
I3
sg1402
g1403
((dp1431
I00
I3
stRp1432
sg1406
I2
sg1407
F4
sbs(g740
g701
tp1433
g1
(g1397
g3
NtRp1434
(dp1435
g1400
F0.5
sg1401
I5
sg1402
g1403
((dp1436
I00
I4
sI01
I1
stRp1437
sg1406
I2
sg1407
F6
sbs(g740
g693
tp1438
g1
(g1397
g3
NtRp1439
(dp1440
g1400
F0.5
sg1401
I5
sg1402
g1403
((dp1441
I00
I5
stRp1442
sg1406
I2
sg1407
F6
sbs(g740
g726
tp1443
g1
(g1397
g3
NtRp1444
(dp1445
g1400
F0.5
sg1401
I5
sg1402
g1403
((dp1446
I00
I4
sI01
I1
stRp1447
sg1406
I2
sg1407
F6
sbs(g346
g319
tp1448
g1
(g1397
g3
NtRp1449
(dp1450
g1400
F0.5
sg1401
I4
sg1402
g1403
((dp1451
I00
I4
stRp1452
sg1406
I2
sg1407
F5
sbs(g346
g337
tp1453
g1
(g1397
g3
NtRp1454
(dp1455
g1400
F0.5
sg1401
I4
sg1402
g1403
((dp1456
I00
I3
sI01
I1
stRp1457
sg1406
I2
sg1407
F5
sbs(g1021
g1013
tp1458
g1
(g1397
g3
NtRp1459
(dp1460
g1400
F0.5
sg1401
I3
sg1402
g1403
((dp1461
I01
I3
stRp1462
sg1406
I2
sg1407
F4
sbs(g346
g333
tp1463
g1
(g1397
g3
NtRp1464
(dp1465
g1400
F0.5
sg1401
I4
sg1402
g1403
((dp1466
I00
I2
sI01
I2
stRp1467
sg1406
I2
sg1407
F5
sbs(g1021
g996
tp1468
g1
(g1397
g3
NtRp1469
(dp1470
g1400
F0.5
sg1401
I3
sg1402
g1403
((dp1471
I00
I3
stRp1472
sg1406
I2
sg1407
F4
sbs(g346
g317
tp1473
g1
(g1397
g3
NtRp1474
(dp1475
g1400
F0.5
sg1401
I4
sg1402
g1403
((dp1476
I00
I3
sI01
I1
stRp1477
sg1406
I2
sg1407
F5
sbs(g571
g523
tp1478
g1
(g1397
g3
NtRp1479
(dp1480
g1400
F0.5
sg1401
I3
sg1402
g1403
((dp1481
I00
I1
sI01
I2
stRp1482
sg1406
I2
sg1407
F4
sbs(g571
g541
tp1483
g1
(g1397
g3
NtRp1484
(dp1485
g1400
F0.5
sg1401
I3
sg1402
g1403
((dp1486
I00
I3
stRp1487
sg1406
I2
sg1407
F4
sbs(g740
g710
tp1488
g1
(g1397
g3
NtRp1489
(dp1490
g1400
F0.5
sg1401
I5
sg1402
g1403
((dp1491
I00
I5
stRp1492
sg1406
I2
sg1407
F6
sbs(g65
g13
tp1493
g1
(g1397
g3
NtRp1494
(dp1495
g1400
F0.5
sg1401
I9
sg1402
g1403
((dp1496
I00
I9
stRp1497
sg1406
I2
sg1407
F10
sbs(g740
g724
tp1498
g1
(g1397
g3
NtRp1499
(dp1500
g1400
F0.5
sg1401
I5
sg1402
g1403
((dp1501
I00
I5
stRp1502
sg1406
I2
sg1407
F6
sbs(g1021
g974
tp1503
g1
(g1397
g3
NtRp1504
(dp1505
g1400
F0.5
sg1401
I3
sg1402
g1403
((dp1506
I00
I3
stRp1507
sg1406
I2
sg1407
F4
sbs(g346
g320
tp1508
g1
(g1397
g3
NtRp1509
(dp1510
g1400
F0.5
sg1401
I4
sg1402
g1403
((dp1511
I00
I3
sI01
I1
stRp1512
sg1406
I2
sg1407
F5
sbs(g740
g696
tp1513
g1
(g1397
g3
NtRp1514
(dp1515
g1400
F0.5
sg1401
I5
sg1402
g1403
((dp1516
I00
I5
stRp1517
sg1406
I2
sg1407
F6
sbs(g571
g517
tp1518
g1
(g1397
g3
NtRp1519
(dp1520
g1400
F0.5
sg1401
I3
sg1402
g1403
((dp1521
I00
I3
stRp1522
sg1406
I2
sg1407
F4
sbs(g740
g706
tp1523
g1
(g1397
g3
NtRp1524
(dp1525
g1400
F0.5
sg1401
I5
sg1402
g1403
((dp1526
I00
I4
sI01
I1
stRp1527
sg1406
I2
sg1407
F6
sbs(g65
g25
tp1528
g1
(g1397
g3
NtRp1529
(dp1530
g1400
F0.5
sg1401
I9
sg1402
g1403
((dp1531
I00
I8
sI01
I1
stRp1532
sg1406
I2
sg1407
F10
sbs(g740
g736
tp1533
g1
(g1397
g3
NtRp1534
(dp1535
g1400
F0.5
sg1401
I5
sg1402
g1403
((dp1536
I00
I2
sI01
I3
stRp1537
sg1406
I2
sg1407
F6
sbs(g65
g32
tp1538
g1
(g1397
g3
NtRp1539
(dp1540
g1400
F0.5
sg1401
I9
sg1402
g1403
((dp1541
I00
I9
stRp1542
sg1406
I2
sg1407
F10
sbs(g571
g548
tp1543
g1
(g1397
g3
NtRp1544
(dp1545
g1400
F0.5
sg1401
I3
sg1402
g1403
((dp1546
I00
I3
stRp1547
sg1406
I2
sg1407
F4
sbs(g1021
g986
tp1548
g1
(g1397
g3
NtRp1549
(dp1550
g1400
F0.5
sg1401
I3
sg1402
g1403
((dp1551
I00
I3
stRp1552
sg1406
I2
sg1407
F4
sbs(g65
g41
tp1553
g1
(g1397
g3
NtRp1554
(dp1555
g1400
F0.5
sg1401
I9
sg1402
g1403
((dp1556
I00
I9
stRp1557
sg1406
I2
sg1407
F10
sbs(g571
g545
tp1558
g1
(g1397
g3
NtRp1559
(dp1560
g1400
F0.5
sg1401
I3
sg1402
g1403
((dp1561
I00
I3
stRp1562
sg1406
I2
sg1407
F4
sbs(g740
g714
tp1563
g1
(g1397
g3
NtRp1564
(dp1565
g1400
F0.5
sg1401
I5
sg1402
g1403
((dp1566
I00
I5
stRp1567
sg1406
I2
sg1407
F6
sbs(g740
g695
tp1568
g1
(g1397
g3
NtRp1569
(dp1570
g1400
F0.5
sg1401
I5
sg1402
g1403
((dp1571
I00
I5
stRp1572
sg1406
I2
sg1407
F6
sbs(g65
g40
tp1573
g1
(g1397
g3
NtRp1574
(dp1575
g1400
F0.5
sg1401
I9
sg1402
g1403
((dp1576
I00
I9
stRp1577
sg1406
I2
sg1407
F10
sbs(g1021
g988
tp1578
g1
(g1397
g3
NtRp1579
(dp1580
g1400
F0.5
sg1401
I3
sg1402
g1403
((dp1581
I00
I2
sI01
I1
stRp1582
sg1406
I2
sg1407
F4
sbs(g346
g331
tp1583
g1
(g1397
g3
NtRp1584
(dp1585
g1400
F0.5
sg1401
I4
sg1402
g1403
((dp1586
I00
I4
stRp1587
sg1406
I2
sg1407
F5
sbs(g571
g561
tp1588
g1
(g1397
g3
NtRp1589
(dp1590
g1400
F0.5
sg1401
I3
sg1402
g1403
((dp1591
I01
I3
stRp1592
sg1406
I2
sg1407
F4
sbs(g346
g309
tp1593
g1
(g1397
g3
NtRp1594
(dp1595
g1400
F0.5
sg1401
I4
sg1402
g1403
((dp1596
I00
I4
stRp1597
sg1406
I2
sg1407
F5
sbs(g65
g11
tp1598
g1
(g1397
g3
NtRp1599
(dp1600
g1400
F0.5
sg1401
I9
sg1402
g1403
((dp1601
I00
I8
sI01
I1
stRp1602
sg1406
I2
sg1407
F10
sbs(g1021
g1017
tp1603
g1
(g1397
g3
NtRp1604
(dp1605
g1400
F0.5
sg1401
I3
sg1402
g1403
((dp1606
I00
I1
sI01
I2
stRp1607
sg1406
I2
sg1407
F4
sbs(g65
g14
tp1608
g1
(g1397
g3
NtRp1609
(dp1610
g1400
F0.5
sg1401
I9
sg1402
g1403
((dp1611
I00
I9
stRp1612
sg1406
I2
sg1407
F10
sbs(g65
g16
tp1613
g1
(g1397
g3
NtRp1614
(dp1615
g1400
F0.5
sg1401
I9
sg1402
g1403
((dp1616
I00
I9
stRp1617
sg1406
I2
sg1407
F10
sbs(g65
g51
tp1618
g1
(g1397
g3
NtRp1619
(dp1620
g1400
F0.5
sg1401
I9
sg1402
g1403
((dp1621
I00
I9
stRp1622
sg1406
I2
sg1407
F10
sbs(g65
g59
tp1623
g1
(g1397
g3
NtRp1624
(dp1625
g1400
F0.5
sg1401
I9
sg1402
g1403
((dp1626
I00
I8
sI01
I1
stRp1627
sg1406
I2
sg1407
F10
sbs(g1021
g977
tp1628
g1
(g1397
g3
NtRp1629
(dp1630
g1400
F0.5
sg1401
I3
sg1402
g1403
((dp1631
I00
I3
stRp1632
sg1406
I2
sg1407
F4
sbs(g65
g47
tp1633
g1
(g1397
g3
NtRp1634
(dp1635
g1400
F0.5
sg1401
I9
sg1402
g1403
((dp1636
I00
I9
stRp1637
sg1406
I2
sg1407
F10
sbs(g65
g18
tp1638
g1
(g1397
g3
NtRp1639
(dp1640
g1400
F0.5
sg1401
I9
sg1402
g1403
((dp1641
I00
I9
stRp1642
sg1406
I2
sg1407
F10
sbs(g740
g709
tp1643
g1
(g1397
g3
NtRp1644
(dp1645
g1400
F0.5
sg1401
I5
sg1402
g1403
((dp1646
I00
I3
sI01
I2
stRp1647
sg1406
I2
sg1407
F6
sbs(g65
g17
tp1648
g1
(g1397
g3
NtRp1649
(dp1650
g1400
F0.5
sg1401
I9
sg1402
g1403
((dp1651
I00
I9
stRp1652
sg1406
I2
sg1407
F10
sbs(g571
g566
tp1653
g1
(g1397
g3
NtRp1654
(dp1655
g1400
F0.5
sg1401
I3
sg1402
g1403
((dp1656
I00
I3
stRp1657
sg1406
I2
sg1407
F4
sbs(g346
g322
tp1658
g1
(g1397
g3
NtRp1659
(dp1660
g1400
F0.5
sg1401
I4
sg1402
g1403
((dp1661
I00
I4
stRp1662
sg1406
I2
sg1407
F5
sbs(g346
g338
tp1663
g1
(g1397
g3
NtRp1664
(dp1665
g1400
F0.5
sg1401
I4
sg1402
g1403
((dp1666
I00
I4
stRp1667
sg1406
I2
sg1407
F5
sbs(g65
g15
tp1668
g1
(g1397
g3
NtRp1669
(dp1670
g1400
F0.5
sg1401
I9
sg1402
g1403
((dp1671
I00
I9
stRp1672
sg1406
I2
sg1407
F10
sbs(g740
g707
tp1673
g1
(g1397
g3
NtRp1674
(dp1675
g1400
F0.5
sg1401
I5
sg1402
g1403
((dp1676
I01
I5
stRp1677
sg1406
I2
sg1407
F6
sbs(g346
g304
tp1678
g1
(g1397
g3
NtRp1679
(dp1680
g1400
F0.5
sg1401
I4
sg1402
g1403
((dp1681
I00
I4
stRp1682
sg1406
I2
sg1407
F5
sbs(g740
g729
tp1683
g1
(g1397
g3
NtRp1684
(dp1685
g1400
F0.5
sg1401
I5
sg1402
g1403
((dp1686
I00
I5
stRp1687
sg1406
I2
sg1407
F6
sbs(g65
g21
tp1688
g1
(g1397
g3
NtRp1689
(dp1690
g1400
F0.5
sg1401
I9
sg1402
g1403
((dp1691
I00
I8
sI01
I1
stRp1692
sg1406
I2
sg1407
F10
sbs(g571
g542
tp1693
g1
(g1397
g3
NtRp1694
(dp1695
g1400
F0.5
sg1401
I3
sg1402
g1403
((dp1696
I00
I2
sI01
I1
stRp1697
sg1406
I2
sg1407
F4
sbs(g740
g711
tp1698
g1
(g1397
g3
NtRp1699
(dp1700
g1400
F0.5
sg1401
I5
sg1402
g1403
((dp1701
I00
I5
stRp1702
sg1406
I2
sg1407
F6
sbs(g1021
g1020
tp1703
g1
(g1397
g3
NtRp1704
(dp1705
g1400
F0.5
sg1401
I3
sg1402
g1403
((dp1706
I00
I2
sI01
I1
stRp1707
sg1406
I2
sg1407
F4
sbs(g346
g300
tp1708
g1
(g1397
g3
NtRp1709
(dp1710
g1400
F0.5
sg1401
I4
sg1402
g1403
((dp1711
I00
I4
stRp1712
sg1406
I2
sg1407
F5
sbs(g65
g31
tp1713
g1
(g1397
g3
NtRp1714
(dp1715
g1400
F0.5
sg1401
I9
sg1402
g1403
((dp1716
I00
I9
stRp1717
sg1406
I2
sg1407
F10
sbs(g65
g55
tp1718
g1
(g1397
g3
NtRp1719
(dp1720
g1400
F0.5
sg1401
I9
sg1402
g1403
((dp1721
I00
I9
stRp1722
sg1406
I2
sg1407
F10
sbs(g65
g64
tp1723
g1
(g1397
g3
NtRp1724
(dp1725
g1400
F0.5
sg1401
I9
sg1402
g1403
((dp1726
I00
I9
stRp1727
sg1406
I2
sg1407
F10
sbs(g571
g520
tp1728
g1
(g1397
g3
NtRp1729
(dp1730
g1400
F0.5
sg1401
I3
sg1402
g1403
((dp1731
I00
I3
stRp1732
sg1406
I2
sg1407
F4
sbs(g1021
g1011
tp1733
g1
(g1397
g3
NtRp1734
(dp1735
g1400
F0.5
sg1401
I3
sg1402
g1403
((dp1736
I00
I3
stRp1737
sg1406
I2
sg1407
F4
sbs(g571
g522
tp1738
g1
(g1397
g3
NtRp1739
(dp1740
g1400
F0.5
sg1401
I3
sg1402
g1403
((dp1741
I00
I3
stRp1742
sg1406
I2
sg1407
F4
sbs(g65
g23
tp1743
g1
(g1397
g3
NtRp1744
(dp1745
g1400
F0.5
sg1401
I9
sg1402
g1403
((dp1746
I00
I9
stRp1747
sg1406
I2
sg1407
F10
sbs(g571
g565
tp1748
g1
(g1397
g3
NtRp1749
(dp1750
g1400
F0.5
sg1401
I3
sg1402
g1403
((dp1751
I00
I3
stRp1752
sg1406
I2
sg1407
F4
sbs(g740
g720
tp1753
g1
(g1397
g3
NtRp1754
(dp1755
g1400
F0.5
sg1401
I5
sg1402
g1403
((dp1756
I00
I5
stRp1757
sg1406
I2
sg1407
F6
sbs(g1021
g1002
tp1758
g1
(g1397
g3
NtRp1759
(dp1760
g1400
F0.5
sg1401
I3
sg1402
g1403
((dp1761
I00
I3
stRp1762
sg1406
I2
sg1407
F4
sbs(g1021
g1006
tp1763
g1
(g1397
g3
NtRp1764
(dp1765
g1400
F0.5
sg1401
I3
sg1402
g1403
((dp1766
I00
I3
stRp1767
sg1406
I2
sg1407
F4
sbs(g1021
g969
tp1768
g1
(g1397
g3
NtRp1769
(dp1770
g1400
F0.5
sg1401
I3
sg1402
g1403
((dp1771
I00
I3
stRp1772
sg1406
I2
sg1407
F4
sbs(g346
g330
tp1773
g1
(g1397
g3
NtRp1774
(dp1775
g1400
F0.5
sg1401
I4
sg1402
g1403
((dp1776
I00
I3
sI01
I1
stRp1777
sg1406
I2
sg1407
F5
sbs(g740
g687
tp1778
g1
(g1397
g3
NtRp1779
(dp1780
g1400
F0.5
sg1401
I5
sg1402
g1403
((dp1781
I00
I5
stRp1782
sg1406
I1
sg1407
F5.5
sbs(g571
g524
tp1783
g1
(g1397
g3
NtRp1784
(dp1785
g1400
F0.5
sg1401
I3
sg1402
g1403
((dp1786
I00
I3
stRp1787
sg1406
I2
sg1407
F4
sbs(g65
g24
tp1788
g1
(g1397
g3
NtRp1789
(dp1790
g1400
F0.5
sg1401
I9
sg1402
g1403
((dp1791
I00
I9
stRp1792
sg1406
I2
sg1407
F10
sbs(g65
g60
tp1793
g1
(g1397
g3
NtRp1794
(dp1795
g1400
F0.5
sg1401
I9
sg1402
g1403
((dp1796
I00
I9
stRp1797
sg1406
I2
sg1407
F10
sbs(g1021
g1000
tp1798
g1
(g1397
g3
NtRp1799
(dp1800
g1400
F0.5
sg1401
I3
sg1402
g1403
((dp1801
I00
I3
stRp1802
sg1406
I2
sg1407
F4
sbs(g1021
g991
tp1803
g1
(g1397
g3
NtRp1804
(dp1805
g1400
F0.5
sg1401
I3
sg1402
g1403
((dp1806
I00
I3
stRp1807
sg1406
I2
sg1407
F4
sbs(g346
g308
tp1808
g1
(g1397
g3
NtRp1809
(dp1810
g1400
F0.5
sg1401
I4
sg1402
g1403
((dp1811
I00
I4
stRp1812
sg1406
I2
sg1407
F5
sbs(g571
g546
tp1813
g1
(g1397
g3
NtRp1814
(dp1815
g1400
F0.5
sg1401
I3
sg1402
g1403
((dp1816
I00
I2
sI01
I1
stRp1817
sg1406
I2
sg1407
F4
sbs(g740
g713
tp1818
g1
(g1397
g3
NtRp1819
(dp1820
g1400
F0.5
sg1401
I5
sg1402
g1403
((dp1821
I00
I4
sI01
I1
stRp1822
sg1406
I2
sg1407
F6
sbs(g571
g549
tp1823
g1
(g1397
g3
NtRp1824
(dp1825
g1400
F0.5
sg1401
I3
sg1402
g1403
((dp1826
I00
I3
stRp1827
sg1406
I2
sg1407
F4
sbs(g740
g718
tp1828
g1
(g1397
g3
NtRp1829
(dp1830
g1400
F0.5
sg1401
I5
sg1402
g1403
((dp1831
I00
I5
stRp1832
sg1406
I2
sg1407
F6
sbs(g571
g527
tp1833
g1
(g1397
g3
NtRp1834
(dp1835
g1400
F0.5
sg1401
I3
sg1402
g1403
((dp1836
I00
I3
stRp1837
sg1406
I2
sg1407
F4
sbs(g1021
g980
tp1838
g1
(g1397
g3
NtRp1839
(dp1840
g1400
F0.5
sg1401
I3
sg1402
g1403
((dp1841
I00
I3
stRp1842
sg1406
I2
sg1407
F4
sbs(g1021
g968
tp1843
g1
(g1397
g3
NtRp1844
(dp1845
g1400
F0.5
sg1401
I3
sg1402
g1403
((dp1846
I00
I3
stRp1847
sg1406
I1
sg1407
F3.5
sbs(g65
g36
tp1848
g1
(g1397
g3
NtRp1849
(dp1850
g1400
F0.5
sg1401
I9
sg1402
g1403
((dp1851
I00
I9
stRp1852
sg1406
I2
sg1407
F10
sbs(g346
g325
tp1853
g1
(g1397
g3
NtRp1854
(dp1855
g1400
F0.5
sg1401
I4
sg1402
g1403
((dp1856
I00
I4
stRp1857
sg1406
I2
sg1407
F5
sbs(g571
g550
tp1858
g1
(g1397
g3
NtRp1859
(dp1860
g1400
F0.5
sg1401
I3
sg1402
g1403
((dp1861
I00
I2
sI01
I1
stRp1862
sg1406
I2
sg1407
F4
sbs(g346
g315
tp1863
g1
(g1397
g3
NtRp1864
(dp1865
g1400
F0.5
sg1401
I4
sg1402
g1403
((dp1866
I00
I4
stRp1867
sg1406
I2
sg1407
F5
sbs(g740
g694
tp1868
g1
(g1397
g3
NtRp1869
(dp1870
g1400
F0.5
sg1401
I5
sg1402
g1403
((dp1871
I00
I5
stRp1872
sg1406
I2
sg1407
F6
sbs(g346
g303
tp1873
g1
(g1397
g3
NtRp1874
(dp1875
g1400
F0.5
sg1401
I4
sg1402
g1403
((dp1876
I00
I4
stRp1877
sg1406
I2
sg1407
F5
sbs(g65
g46
tp1878
g1
(g1397
g3
NtRp1879
(dp1880
g1400
F0.5
sg1401
I9
sg1402
g1403
((dp1881
I00
I9
stRp1882
sg1406
I2
sg1407
F10
sbs(g1021
g1018
tp1883
g1
(g1397
g3
NtRp1884
(dp1885
g1400
F0.5
sg1401
I3
sg1402
g1403
((dp1886
I00
I3
stRp1887
sg1406
I1
sg1407
F3.5
sbs(g571
g570
tp1888
g1
(g1397
g3
NtRp1889
(dp1890
g1400
F0.5
sg1401
I3
sg1402
g1403
((dp1891
I00
I3
stRp1892
sg1406
I2
sg1407
F4
sbs(g346
g323
tp1893
g1
(g1397
g3
NtRp1894
(dp1895
g1400
F0.5
sg1401
I4
sg1402
g1403
((dp1896
I00
I4
stRp1897
sg1406
I2
sg1407
F5
sbs(g740
g730
tp1898
g1
(g1397
g3
NtRp1899
(dp1900
g1400
F0.5
sg1401
I5
sg1402
g1403
((dp1901
I00
I5
stRp1902
sg1406
I2
sg1407
F6
sbs(g571
g529
tp1903
g1
(g1397
g3
NtRp1904
(dp1905
g1400
F0.5
sg1401
I3
sg1402
g1403
((dp1906
I00
I2
sI01
I1
stRp1907
sg1406
I2
sg1407
F4
sbs(g1021
g979
tp1908
g1
(g1397
g3
NtRp1909
(dp1910
g1400
F0.5
sg1401
I3
sg1402
g1403
((dp1911
I01
I3
stRp1912
sg1406
I2
sg1407
F4
sbs(g1021
g975
tp1913
g1
(g1397
g3
NtRp1914
(dp1915
g1400
F0.5
sg1401
I3
sg1402
g1403
((dp1916
I00
I3
stRp1917
sg1406
I2
sg1407
F4
sbs(g740
g686
tp1918
g1
(g1397
g3
NtRp1919
(dp1920
g1400
F0.5
sg1401
I5
sg1402
g1403
((dp1921
I00
I5
stRp1922
sg1406
I2
sg1407
F6
sbs(g740
g731
tp1923
g1
(g1397
g3
NtRp1924
(dp1925
g1400
F0.5
sg1401
I5
sg1402
g1403
((dp1926
I00
I5
stRp1927
sg1406
I2
sg1407
F6
sbs(g65
g62
tp1928
g1
(g1397
g3
NtRp1929
(dp1930
g1400
F0.5
sg1401
I9
sg1402
g1403
((dp1931
I00
I9
stRp1932
sg1406
I1
sg1407
F9.5
sbs(g571
g526
tp1933
g1
(g1397
g3
NtRp1934
(dp1935
g1400
F0.5
sg1401
I3
sg1402
g1403
((dp1936
I00
I3
stRp1937
sg1406
I2
sg1407
F4
sbs(g571
g530
tp1938
g1
(g1397
g3
NtRp1939
(dp1940
g1400
F0.5
sg1401
I3
sg1402
g1403
((dp1941
I00
I3
stRp1942
sg1406
I2
sg1407
F4
sbs(g571
g536
tp1943
g1
(g1397
g3
NtRp1944
(dp1945
g1400
F0.5
sg1401
I3
sg1402
g1403
((dp1946
I00
I3
stRp1947
sg1406
I2
sg1407
F4
sbs(g571
g564
tp1948
g1
(g1397
g3
NtRp1949
(dp1950
g1400
F0.5
sg1401
I3
sg1402
g1403
((dp1951
I00
I3
stRp1952
sg1406
I2
sg1407
F4
sbs(g740
g728
tp1953
g1
(g1397
g3
NtRp1954
(dp1955
g1400
F0.5
sg1401
I5
sg1402
g1403
((dp1956
I00
I5
stRp1957
sg1406
I2
sg1407
F6
sbs(g571
g557
tp1958
g1
(g1397
g3
NtRp1959
(dp1960
g1400
F0.5
sg1401
I3
sg1402
g1403
((dp1961
I00
I3
stRp1962
sg1406
I2
sg1407
F4
sbs(g346
g335
tp1963
g1
(g1397
g3
NtRp1964
(dp1965
g1400
F0.5
sg1401
I4
sg1402
g1403
((dp1966
I00
I4
stRp1967
sg1406
I2
sg1407
F5
sbs(g346
g327
tp1968
g1
(g1397
g3
NtRp1969
(dp1970
g1400
F0.5
sg1401
I4
sg1402
g1403
((dp1971
I00
I3
sI01
I1
stRp1972
sg1406
I2
sg1407
F5
sbs(g740
g735
tp1973
g1
(g1397
g3
NtRp1974
(dp1975
g1400
F0.5
sg1401
I5
sg1402
g1403
((dp1976
I00
I4
sI01
I1
stRp1977
sg1406
I2
sg1407
F6
sbs(g346
g306
tp1978
g1
(g1397
g3
NtRp1979
(dp1980
g1400
F0.5
sg1401
I4
sg1402
g1403
((dp1981
I00
I4
stRp1982
sg1406
I2
sg1407
F5
sbs(g740
g688
tp1983
g1
(g1397
g3
NtRp1984
(dp1985
g1400
F0.5
sg1401
I5
sg1402
g1403
((dp1986
I01
I5
stRp1987
sg1406
I2
sg1407
F6
sbs(g65
g43
tp1988
g1
(g1397
g3
NtRp1989
(dp1990
g1400
F0.5
sg1401
I9
sg1402
g1403
((dp1991
I00
I9
stRp1992
sg1406
I2
sg1407
F10
sbs(g740
g737
tp1993
g1
(g1397
g3
NtRp1994
(dp1995
g1400
F0.5
sg1401
I5
sg1402
g1403
((dp1996
I00
I5
stRp1997
sg1406
I1
sg1407
F5.5
sbs(g346
g341
tp1998
g1
(g1397
g3
NtRp1999
(dp2000
g1400
F0.5
sg1401
I4
sg1402
g1403
((dp2001
I00
I4
stRp2002
sg1406
I2
sg1407
F5
sbs(g1021
g1012
tp2003
g1
(g1397
g3
NtRp2004
(dp2005
g1400
F0.5
sg1401
I3
sg1402
g1403
((dp2006
I00
I3
stRp2007
sg1406
I2
sg1407
F4
sbs(g740
g692
tp2008
g1
(g1397
g3
NtRp2009
(dp2010
g1400
F0.5
sg1401
I5
sg1402
g1403
((dp2011
I00
I5
stRp2012
sg1406
I2
sg1407
F6
sbs(g346
g296
tp2013
g1
(g1397
g3
NtRp2014
(dp2015
g1400
F0.5
sg1401
I4
sg1402
g1403
((dp2016
I00
I3
sI01
I1
stRp2017
sg1406
I2
sg1407
F5
sbs(g1021
g987
tp2018
g1
(g1397
g3
NtRp2019
(dp2020
g1400
F0.5
sg1401
I3
sg1402
g1403
((dp2021
I00
I3
stRp2022
sg1406
I2
sg1407
F4
sbs(g346
g332
tp2023
g1
(g1397
g3
NtRp2024
(dp2025
g1400
F0.5
sg1401
I4
sg1402
g1403
((dp2026
I00
I4
stRp2027
sg1406
I2
sg1407
F5
sbs(g65
g44
tp2028
g1
(g1397
g3
NtRp2029
(dp2030
g1400
F0.5
sg1401
I9
sg1402
g1403
((dp2031
I00
I9
stRp2032
sg1406
I2
sg1407
F10
sbs(g740
g690
tp2033
g1
(g1397
g3
NtRp2034
(dp2035
g1400
F0.5
sg1401
I5
sg1402
g1403
((dp2036
I00
I5
stRp2037
sg1406
I2
sg1407
F6
sbs(g1021
g1009
tp2038
g1
(g1397
g3
NtRp2039
(dp2040
g1400
F0.5
sg1401
I3
sg1402
g1403
((dp2041
I00
I2
sI01
I1
stRp2042
sg1406
I2
sg1407
F4
sbs(g346
g292
tp2043
g1
(g1397
g3
NtRp2044
(dp2045
g1400
F0.5
sg1401
I4
sg1402
g1403
((dp2046
I00
I3
sI01
I1
stRp2047
sg1406
I2
sg1407
F5
sbs(g1021
g1015
tp2048
g1
(g1397
g3
NtRp2049
(dp2050
g1400
F0.5
sg1401
I3
sg1402
g1403
((dp2051
I00
I3
stRp2052
sg1406
I2
sg1407
F4
sbs(g1021
g995
tp2053
g1
(g1397
g3
NtRp2054
(dp2055
g1400
F0.5
sg1401
I3
sg1402
g1403
((dp2056
I00
I3
stRp2057
sg1406
I2
sg1407
F4
sbs(g346
g336
tp2058
g1
(g1397
g3
NtRp2059
(dp2060
g1400
F0.5
sg1401
I4
sg1402
g1403
((dp2061
I00
I4
stRp2062
sg1406
I2
sg1407
F5
sbs(g346
g307
tp2063
g1
(g1397
g3
NtRp2064
(dp2065
g1400
F0.5
sg1401
I4
sg1402
g1403
((dp2066
I00
I4
stRp2067
sg1406
I2
sg1407
F5
sbs(g1021
g982
tp2068
g1
(g1397
g3
NtRp2069
(dp2070
g1400
F0.5
sg1401
I3
sg1402
g1403
((dp2071
I00
I3
stRp2072
sg1406
I2
sg1407
F4
sbs(g1021
g978
tp2073
g1
(g1397
g3
NtRp2074
(dp2075
g1400
F0.5
sg1401
I3
sg1402
g1403
((dp2076
I00
I2
sI01
I1
stRp2077
sg1406
I2
sg1407
F4
sbs(g740
g723
tp2078
g1
(g1397
g3
NtRp2079
(dp2080
g1400
F0.5
sg1401
I5
sg1402
g1403
((dp2081
I00
I4
sI01
I1
stRp2082
sg1406
I2
sg1407
F6
sbs(g740
g734
tp2083
g1
(g1397
g3
NtRp2084
(dp2085
g1400
F0.5
sg1401
I5
sg1402
g1403
((dp2086
I00
I5
stRp2087
sg1406
I2
sg1407
F6
sbs(g571
g521
tp2088
g1
(g1397
g3
NtRp2089
(dp2090
g1400
F0.5
sg1401
I3
sg1402
g1403
((dp2091
I00
I3
stRp2092
sg1406
I2
sg1407
F4
sbs(g571
g528
tp2093
g1
(g1397
g3
NtRp2094
(dp2095
g1400
F0.5
sg1401
I3
sg1402
g1403
((dp2096
I00
I2
sI01
I1
stRp2097
sg1406
I2
sg1407
F4
sbs(g65
g50
tp2098
g1
(g1397
g3
NtRp2099
(dp2100
g1400
F0.5
sg1401
I9
sg1402
g1403
((dp2101
I00
I8
sI01
I1
stRp2102
sg1406
I2
sg1407
F10
sbs(g65
g30
tp2103
g1
(g1397
g3
NtRp2104
(dp2105
g1400
F0.5
sg1401
I9
sg1402
g1403
((dp2106
I00
I9
stRp2107
sg1406
I2
sg1407
F10
sbs(g1021
g993
tp2108
g1
(g1397
g3
NtRp2109
(dp2110
g1400
F0.5
sg1401
I3
sg1402
g1403
((dp2111
I00
I3
stRp2112
sg1406
I2
sg1407
F4
sbs(g346
g345
tp2113
g1
(g1397
g3
NtRp2114
(dp2115
g1400
F0.5
sg1401
I4
sg1402
g1403
((dp2116
I00
I4
stRp2117
sg1406
I2
sg1407
F5
sbs(g346
g328
tp2118
g1
(g1397
g3
NtRp2119
(dp2120
g1400
F0.5
sg1401
I4
sg1402
g1403
((dp2121
I00
I4
stRp2122
sg1406
I2
sg1407
F5
sbs(g65
g45
tp2123
g1
(g1397
g3
NtRp2124
(dp2125
g1400
F0.5
sg1401
I9
sg1402
g1403
((dp2126
I00
I8
sI01
I1
stRp2127
sg1406
I2
sg1407
F10
sbs(g65
g26
tp2128
g1
(g1397
g3
NtRp2129
(dp2130
g1400
F0.5
sg1401
I9
sg1402
g1403
((dp2131
I00
I9
stRp2132
sg1406
I2
sg1407
F10
sbs(g571
g539
tp2133
g1
(g1397
g3
NtRp2134
(dp2135
g1400
F0.5
sg1401
I3
sg1402
g1403
((dp2136
I00
I2
sI01
I1
stRp2137
sg1406
I2
sg1407
F4
sbs(g65
g33
tp2138
g1
(g1397
g3
NtRp2139
(dp2140
g1400
F0.5
sg1401
I9
sg1402
g1403
((dp2141
I00
I9
stRp2142
sg1406
I2
sg1407
F10
sbs(g571
g547
tp2143
g1
(g1397
g3
NtRp2144
(dp2145
g1400
F0.5
sg1401
I3
sg1402
g1403
((dp2146
I01
I3
stRp2147
sg1406
I2
sg1407
F4
sbs(g1021
g1001
tp2148
g1
(g1397
g3
NtRp2149
(dp2150
g1400
F0.5
sg1401
I3
sg1402
g1403
((dp2151
I00
I3
stRp2152
sg1406
I2
sg1407
F4
sbs(g740
g716
tp2153
g1
(g1397
g3
NtRp2154
(dp2155
g1400
F0.5
sg1401
I5
sg1402
g1403
((dp2156
I00
I3
sI01
I2
stRp2157
sg1406
I2
sg1407
F6
sbs(g346
g310
tp2158
g1
(g1397
g3
NtRp2159
(dp2160
g1400
F0.5
sg1401
I4
sg1402
g1403
((dp2161
I00
I4
stRp2162
sg1406
I2
sg1407
F5
sbs(g346
g312
tp2163
g1
(g1397
g3
NtRp2164
(dp2165
g1400
F0.5
sg1401
I4
sg1402
g1403
((dp2166
I00
I4
stRp2167
sg1406
I2
sg1407
F5
sbs(g571
g537
tp2168
g1
(g1397
g3
NtRp2169
(dp2170
g1400
F0.5
sg1401
I3
sg1402
g1403
((dp2171
I00
I3
stRp2172
sg1406
I2
sg1407
F4
sbs(g571
g533
tp2173
g1
(g1397
g3
NtRp2174
(dp2175
g1400
F0.5
sg1401
I3
sg1402
g1403
((dp2176
I00
I3
stRp2177
sg1406
I2
sg1407
F4
sbs(g346
g305
tp2178
g1
(g1397
g3
NtRp2179
(dp2180
g1400
F0.5
sg1401
I4
sg1402
g1403
((dp2181
I00
I4
stRp2182
sg1406
I2
sg1407
F5
sbs(g65
g57
tp2183
g1
(g1397
g3
NtRp2184
(dp2185
g1400
F0.5
sg1401
I9
sg1402
g1403
((dp2186
I00
I9
stRp2187
sg1406
I2
sg1407
F10
sbs(g1021
g1010
tp2188
g1
(g1397
g3
NtRp2189
(dp2190
g1400
F0.5
sg1401
I3
sg1402
g1403
((dp2191
I00
I3
stRp2192
sg1406
I2
sg1407
F4
sbs(g346
g329
tp2193
g1
(g1397
g3
NtRp2194
(dp2195
g1400
F0.5
sg1401
I4
sg1402
g1403
((dp2196
I00
I4
stRp2197
sg1406
I2
sg1407
F5
sbs(g1021
g989
tp2198
g1
(g1397
g3
NtRp2199
(dp2200
g1400
F0.5
sg1401
I3
sg1402
g1403
((dp2201
I00
I3
stRp2202
sg1406
I2
sg1407
F4
sbs(g1021
g997
tp2203
g1
(g1397
g3
NtRp2204
(dp2205
g1400
F0.5
sg1401
I3
sg1402
g1403
((dp2206
I00
I3
stRp2207
sg1406
I2
sg1407
F4
sbs(g1021
g972
tp2208
g1
(g1397
g3
NtRp2209
(dp2210
g1400
F0.5
sg1401
I3
sg1402
g1403
((dp2211
I00
I2
sI01
I1
stRp2212
sg1406
I2
sg1407
F4
sbs(g740
g739
tp2213
g1
(g1397
g3
NtRp2214
(dp2215
g1400
F0.5
sg1401
I5
sg1402
g1403
((dp2216
I00
I2
sI01
I3
stRp2217
sg1406
I2
sg1407
F6
sbs(g571
g558
tp2218
g1
(g1397
g3
NtRp2219
(dp2220
g1400
F0.5
sg1401
I3
sg1402
g1403
((dp2221
I00
I3
stRp2222
sg1406
I2
sg1407
F4
sbs(g346
g334
tp2223
g1
(g1397
g3
NtRp2224
(dp2225
g1400
F0.5
sg1401
I4
sg1402
g1403
((dp2226
I00
I4
stRp2227
sg1406
I2
sg1407
F5
sbs(g1021
g976
tp2228
g1
(g1397
g3
NtRp2229
(dp2230
g1400
F0.5
sg1401
I3
sg1402
g1403
((dp2231
I00
I3
stRp2232
sg1406
I2
sg1407
F4
sbs(g65
g61
tp2233
g1
(g1397
g3
NtRp2234
(dp2235
g1400
F0.5
sg1401
I9
sg1402
g1403
((dp2236
I00
I9
stRp2237
sg1406
I2
sg1407
F10
sbs(g1021
g967
tp2238
g1
(g1397
g3
NtRp2239
(dp2240
g1400
F0.5
sg1401
I3
sg1402
g1403
((dp2241
I00
I3
stRp2242
sg1406
I2
sg1407
F4
sbs(g346
g340
tp2243
g1
(g1397
g3
NtRp2244
(dp2245
g1400
F0.5
sg1401
I4
sg1402
g1403
((dp2246
I00
I4
stRp2247
sg1406
I2
sg1407
F5
sbs(g65
g22
tp2248
g1
(g1397
g3
NtRp2249
(dp2250
g1400
F0.5
sg1401
I9
sg1402
g1403
((dp2251
I00
I9
stRp2252
sg1406
I2
sg1407
F10
sbs(g1021
g994
tp2253
g1
(g1397
g3
NtRp2254
(dp2255
g1400
F0.5
sg1401
I3
sg1402
g1403
((dp2256
I00
I3
stRp2257
sg1406
I2
sg1407
F4
sbs(g1021
g985
tp2258
g1
(g1397
g3
NtRp2259
(dp2260
g1400
F0.5
sg1401
I3
sg1402
g1403
((dp2261
I00
I3
stRp2262
sg1406
I2
sg1407
F4
sbs(g1021
g970
tp2263
g1
(g1397
g3
NtRp2264
(dp2265
g1400
F0.5
sg1401
I3
sg1402
g1403
((dp2266
I00
I3
stRp2267
sg1406
I2
sg1407
F4
sbs(g65
g49
tp2268
g1
(g1397
g3
NtRp2269
(dp2270
g1400
F0.5
sg1401
I9
sg1402
g1403
((dp2271
I00
I9
stRp2272
sg1406
I2
sg1407
F10
sbs(g571
g568
tp2273
g1
(g1397
g3
NtRp2274
(dp2275
g1400
F0.5
sg1401
I3
sg1402
g1403
((dp2276
I00
I3
stRp2277
sg1406
I1
sg1407
F3.5
sbs(g571
g532
tp2278
g1
(g1397
g3
NtRp2279
(dp2280
g1400
F0.5
sg1401
I3
sg1402
g1403
((dp2281
I00
I1
sI01
I2
stRp2282
sg1406
I2
sg1407
F4
sbs(g571
g563
tp2283
g1
(g1397
g3
NtRp2284
(dp2285
g1400
F0.5
sg1401
I3
sg1402
g1403
((dp2286
I01
I3
stRp2287
sg1406
I2
sg1407
F4
sbs(g740
g704
tp2288
g1
(g1397
g3
NtRp2289
(dp2290
g1400
F0.5
sg1401
I5
sg1402
g1403
((dp2291
I00
I3
sI01
I2
stRp2292
sg1406
I2
sg1407
F6
sbs(g65
g29
tp2293
g1
(g1397
g3
NtRp2294
(dp2295
g1400
F0.5
sg1401
I9
sg1402
g1403
((dp2296
I00
I9
stRp2297
sg1406
I2
sg1407
F10
sbs(g571
g535
tp2298
g1
(g1397
g3
NtRp2299
(dp2300
g1400
F0.5
sg1401
I3
sg1402
g1403
((dp2301
I00
I3
stRp2302
sg1406
I2
sg1407
F4
sbs(g1021
g983
tp2303
g1
(g1397
g3
NtRp2304
(dp2305
g1400
F0.5
sg1401
I3
sg1402
g1403
((dp2306
I00
I2
sI01
I1
stRp2307
sg1406
I2
sg1407
F4
sbs(g346
g318
tp2308
g1
(g1397
g3
NtRp2309
(dp2310
g1400
F0.5
sg1401
I4
sg1402
g1403
((dp2311
I00
I3
sI01
I1
stRp2312
sg1406
I2
sg1407
F5
sbs(g65
g27
tp2313
g1
(g1397
g3
NtRp2314
(dp2315
g1400
F0.5
sg1401
I9
sg1402
g1403
((dp2316
I00
I9
stRp2317
sg1406
I2
sg1407
F10
sbs(g1021
g1005
tp2318
g1
(g1397
g3
NtRp2319
(dp2320
g1400
F0.5
sg1401
I3
sg1402
g1403
((dp2321
I00
I3
stRp2322
sg1406
I2
sg1407
F4
sbs(g740
g689
tp2323
g1
(g1397
g3
NtRp2324
(dp2325
g1400
F0.5
sg1401
I5
sg1402
g1403
((dp2326
I00
I5
stRp2327
sg1406
I2
sg1407
F6
sbs(g571
g544
tp2328
g1
(g1397
g3
NtRp2329
(dp2330
g1400
F0.5
sg1401
I3
sg1402
g1403
((dp2331
I00
I3
stRp2332
sg1406
I2
sg1407
F4
sbs(g65
g12
tp2333
g1
(g1397
g3
NtRp2334
(dp2335
g1400
F0.5
sg1401
I9
sg1402
g1403
((dp2336
I00
I9
stRp2337
sg1406
I1
sg1407
F9.5
sbs(g346
g294
tp2338
g1
(g1397
g3
NtRp2339
(dp2340
g1400
F0.5
sg1401
I4
sg1402
g1403
((dp2341
I00
I4
stRp2342
sg1406
I2
sg1407
F5
sbs(g740
g733
tp2343
g1
(g1397
g3
NtRp2344
(dp2345
g1400
F0.5
sg1401
I5
sg1402
g1403
((dp2346
I00
I5
stRp2347
sg1406
I2
sg1407
F6
sbs(g1021
g1007
tp2348
g1
(g1397
g3
NtRp2349
(dp2350
g1400
F0.5
sg1401
I3
sg1402
g1403
((dp2351
I00
I3
stRp2352
sg1406
I2
sg1407
F4
sbs(g65
g58
tp2353
g1
(g1397
g3
NtRp2354
(dp2355
g1400
F0.5
sg1401
I9
sg1402
g1403
((dp2356
I00
I8
sI01
I1
stRp2357
sg1406
I2
sg1407
F10
sbs(g346
g311
tp2358
g1
(g1397
g3
NtRp2359
(dp2360
g1400
F0.5
sg1401
I4
sg1402
g1403
((dp2361
I00
I4
stRp2362
sg1406
I2
sg1407
F5
sbs(g65
g52
tp2363
g1
(g1397
g3
NtRp2364
(dp2365
g1400
F0.5
sg1401
I9
sg1402
g1403
((dp2366
I00
I8
sI01
I1
stRp2367
sg1406
I2
sg1407
F10
sbs(g740
g717
tp2368
g1
(g1397
g3
NtRp2369
(dp2370
g1400
F0.5
sg1401
I5
sg1402
g1403
((dp2371
I00
I5
stRp2372
sg1406
I2
sg1407
F6
sbs(g65
g37
tp2373
g1
(g1397
g3
NtRp2374
(dp2375
g1400
F0.5
sg1401
I9
sg1402
g1403
((dp2376
I00
I8
sI01
I1
stRp2377
sg1406
I2
sg1407
F10
sbs(g571
g567
tp2378
g1
(g1397
g3
NtRp2379
(dp2380
g1400
F0.5
sg1401
I3
sg1402
g1403
((dp2381
I00
I2
sI01
I1
stRp2382
sg1406
I2
sg1407
F4
sbs(g1021
g1004
tp2383
g1
(g1397
g3
NtRp2384
(dp2385
g1400
F0.5
sg1401
I3
sg1402
g1403
((dp2386
I00
I3
stRp2387
sg1406
I2
sg1407
F4
sbs(g1021
g984
tp2388
g1
(g1397
g3
NtRp2389
(dp2390
g1400
F0.5
sg1401
I3
sg1402
g1403
((dp2391
I00
I2
sI01
I1
stRp2392
sg1406
I2
sg1407
F4
sbs(g346
g293
tp2393
g1
(g1397
g3
NtRp2394
(dp2395
g1400
F0.5
sg1401
I4
sg1402
g1403
((dp2396
I00
I4
stRp2397
sg1406
I1
sg1407
F4.5
sbs(g346
g295
tp2398
g1
(g1397
g3
NtRp2399
(dp2400
g1400
F0.5
sg1401
I4
sg1402
g1403
((dp2401
I00
I3
sI01
I1
stRp2402
sg1406
I2
sg1407
F5
sbs(g571
g569
tp2403
g1
(g1397
g3
NtRp2404
(dp2405
g1400
F0.5
sg1401
I3
sg1402
g1403
((dp2406
I00
I3
stRp2407
sg1406
I2
sg1407
F4
sbs(g740
g719
tp2408
g1
(g1397
g3
NtRp2409
(dp2410
g1400
F0.5
sg1401
I5
sg1402
g1403
((dp2411
I00
I5
stRp2412
sg1406
I2
sg1407
F6
sbs(g346
g314
tp2413
g1
(g1397
g3
NtRp2414
(dp2415
g1400
F0.5
sg1401
I4
sg1402
g1403
((dp2416
I00
I4
stRp2417
sg1406
I2
sg1407
F5
sbs(g740
g698
tp2418
g1
(g1397
g3
NtRp2419
(dp2420
g1400
F0.5
sg1401
I5
sg1402
g1403
((dp2421
I00
I2
sI01
I3
stRp2422
sg1406
I2
sg1407
F6
sbs(g1021
g998
tp2423
g1
(g1397
g3
NtRp2424
(dp2425
g1400
F0.5
sg1401
I3
sg1402
g1403
((dp2426
I00
I3
stRp2427
sg1406
I2
sg1407
F4
sbs(g346
g324
tp2428
g1
(g1397
g3
NtRp2429
(dp2430
g1400
F0.5
sg1401
I4
sg1402
g1403
((dp2431
I00
I4
stRp2432
sg1406
I2
sg1407
F5
sbs(g1021
g1019
tp2433
g1
(g1397
g3
NtRp2434
(dp2435
g1400
F0.5
sg1401
I3
sg1402
g1403
((dp2436
I00
I3
stRp2437
sg1406
I2
sg1407
F4
sbs(g571
g554
tp2438
g1
(g1397
g3
NtRp2439
(dp2440
g1400
F0.5
sg1401
I3
sg1402
g1403
((dp2441
I00
I3
stRp2442
sg1406
I2
sg1407
F4
sbs(g740
g703
tp2443
g1
(g1397
g3
NtRp2444
(dp2445
g1400
F0.5
sg1401
I5
sg1402
g1403
((dp2446
I00
I5
stRp2447
sg1406
I2
sg1407
F6
sbs(g571
g559
tp2448
g1
(g1397
g3
NtRp2449
(dp2450
g1400
F0.5
sg1401
I3
sg1402
g1403
((dp2451
I00
I3
stRp2452
sg1406
I2
sg1407
F4
sbs(g571
g534
tp2453
g1
(g1397
g3
NtRp2454
(dp2455
g1400
F0.5
sg1401
I3
sg1402
g1403
((dp2456
I00
I3
stRp2457
sg1406
I2
sg1407
F4
sbs(g740
g705
tp2458
g1
(g1397
g3
NtRp2459
(dp2460
g1400
F0.5
sg1401
I5
sg1402
g1403
((dp2461
I00
I3
sI01
I2
stRp2462
sg1406
I2
sg1407
F6
sbs(g65
g53
tp2463
g1
(g1397
g3
NtRp2464
(dp2465
g1400
F0.5
sg1401
I9
sg1402
g1403
((dp2466
I00
I9
stRp2467
sg1406
I2
sg1407
F10
sbs(g571
g540
tp2468
g1
(g1397
g3
NtRp2469
(dp2470
g1400
F0.5
sg1401
I3
sg1402
g1403
((dp2471
I00
I3
stRp2472
sg1406
I2
sg1407
F4
sbs(g65
g20
tp2473
g1
(g1397
g3
NtRp2474
(dp2475
g1400
F0.5
sg1401
I9
sg1402
g1403
((dp2476
I00
I8
sI01
I1
stRp2477
sg1406
I2
sg1407
F10
sbs(g571
g538
tp2478
g1
(g1397
g3
NtRp2479
(dp2480
g1400
F0.5
sg1401
I3
sg1402
g1403
((dp2481
I00
I2
sI01
I1
stRp2482
sg1406
I2
sg1407
F4
sbs(g346
g298
tp2483
g1
(g1397
g3
NtRp2484
(dp2485
g1400
F0.5
sg1401
I4
sg1402
g1403
((dp2486
I00
I4
stRp2487
sg1406
I2
sg1407
F5
sbs(g65
g38
tp2488
g1
(g1397
g3
NtRp2489
(dp2490
g1400
F0.5
sg1401
I9
sg1402
g1403
((dp2491
I00
I9
stRp2492
sg1406
I2
sg1407
F10
sbs(g740
g708
tp2493
g1
(g1397
g3
NtRp2494
(dp2495
g1400
F0.5
sg1401
I5
sg1402
g1403
((dp2496
I00
I3
sI01
I2
stRp2497
sg1406
I2
sg1407
F6
sbs(g346
g339
tp2498
g1
(g1397
g3
NtRp2499
(dp2500
g1400
F0.5
sg1401
I4
sg1402
g1403
((dp2501
I00
I4
stRp2502
sg1406
I2
sg1407
F5
sbs(g346
g326
tp2503
g1
(g1397
g3
NtRp2504
(dp2505
g1400
F0.5
sg1401
I4
sg1402
g1403
((dp2506
I00
I4
stRp2507
sg1406
I2
sg1407
F5
sbs(g1021
g999
tp2508
g1
(g1397
g3
NtRp2509
(dp2510
g1400
F0.5
sg1401
I3
sg1402
g1403
((dp2511
I00
I2
sI01
I1
stRp2512
sg1406
I2
sg1407
F4
sbs(g571
g555
tp2513
g1
(g1397
g3
NtRp2514
(dp2515
g1400
F0.5
sg1401
I3
sg1402
g1403
((dp2516
I00
I3
stRp2517
sg1406
I2
sg1407
F4
sbs(g1021
g1016
tp2518
g1
(g1397
g3
NtRp2519
(dp2520
g1400
F0.5
sg1401
I3
sg1402
g1403
((dp2521
I00
I3
stRp2522
sg1406
I2
sg1407
F4
sbs(g571
g543
tp2523
g1
(g1397
g3
NtRp2524
(dp2525
g1400
F0.5
sg1401
I3
sg1402
g1403
((dp2526
I00
I3
stRp2527
sg1406
I2
sg1407
F4
sbs(g740
g712
tp2528
g1
(g1397
g3
NtRp2529
(dp2530
g1400
F0.5
sg1401
I5
sg1402
g1403
((dp2531
I00
I5
stRp2532
sg1406
I2
sg1407
F6
sbs(g346
g313
tp2533
g1
(g1397
g3
NtRp2534
(dp2535
g1400
F0.5
sg1401
I4
sg1402
g1403
((dp2536
I00
I4
stRp2537
sg1406
I2
sg1407
F5
sbs(g740
g727
tp2538
g1
(g1397
g3
NtRp2539
(dp2540
g1400
F0.5
sg1401
I5
sg1402
g1403
((dp2541
I00
I5
stRp2542
sg1406
I2
sg1407
F6
sbs(g740
g732
tp2543
g1
(g1397
g3
NtRp2544
(dp2545
g1400
F0.5
sg1401
I5
sg1402
g1403
((dp2546
I00
I3
sI01
I2
stRp2547
sg1406
I2
sg1407
F6
sbs(g65
g54
tp2548
g1
(g1397
g3
NtRp2549
(dp2550
g1400
F0.5
sg1401
I9
sg1402
g1403
((dp2551
I00
I4
sI01
I5
stRp2552
sg1406
I2
sg1407
F10
sbs(g65
g63
tp2553
g1
(g1397
g3
NtRp2554
(dp2555
g1400
F0.5
sg1401
I9
sg1402
g1403
((dp2556
I00
I9
stRp2557
sg1406
I2
sg1407
F10
sbs(g571
g551
tp2558
g1
(g1397
g3
NtRp2559
(dp2560
g1400
F0.5
sg1401
I3
sg1402
g1403
((dp2561
I00
I3
stRp2562
sg1406
I2
sg1407
F4
sbs(g571
g552
tp2563
g1
(g1397
g3
NtRp2564
(dp2565
g1400
F0.5
sg1401
I3
sg1402
g1403
((dp2566
I00
I3
stRp2567
sg1406
I2
sg1407
F4
sbs(g740
g721
tp2568
g1
(g1397
g3
NtRp2569
(dp2570
g1400
F0.5
sg1401
I5
sg1402
g1403
((dp2571
I00
I5
stRp2572
sg1406
I2
sg1407
F6
sbs(g65
g56
tp2573
g1
(g1397
g3
NtRp2574
(dp2575
g1400
F0.5
sg1401
I9
sg1402
g1403
((dp2576
I00
I8
sI01
I1
stRp2577
sg1406
I2
sg1407
F10
sbs(g65
g34
tp2578
g1
(g1397
g3
NtRp2579
(dp2580
g1400
F0.5
sg1401
I9
sg1402
g1403
((dp2581
I00
I9
stRp2582
sg1406
I2
sg1407
F10
sbs(g346
g302
tp2583
g1
(g1397
g3
NtRp2584
(dp2585
g1400
F0.5
sg1401
I4
sg1402
g1403
((dp2586
I00
I4
stRp2587
sg1406
I2
sg1407
F5
sbs(g65
g28
tp2588
g1
(g1397
g3
NtRp2589
(dp2590
g1400
F0.5
sg1401
I9
sg1402
g1403
((dp2591
I00
I9
stRp2592
sg1406
I2
sg1407
F10
sbs(g740
g697
tp2593
g1
(g1397
g3
NtRp2594
(dp2595
g1400
F0.5
sg1401
I5
sg1402
g1403
((dp2596
I00
I5
stRp2597
sg1406
I2
sg1407
F6
sbs(g346
g316
tp2598
g1
(g1397
g3
NtRp2599
(dp2600
g1400
F0.5
sg1401
I4
sg1402
g1403
((dp2601
I00
I4
stRp2602
sg1406
I2
sg1407
F5
sbs(g571
g518
tp2603
g1
(g1397
g3
NtRp2604
(dp2605
g1400
F0.5
sg1401
I3
sg1402
g1403
((dp2606
I00
I3
stRp2607
sg1406
I1
sg1407
F3.5
sbs(g1021
g1008
tp2608
g1
(g1397
g3
NtRp2609
(dp2610
g1400
F0.5
sg1401
I3
sg1402
g1403
((dp2611
I00
I3
stRp2612
sg1406
I2
sg1407
F4
sbs(g1021
g992
tp2613
g1
(g1397
g3
NtRp2614
(dp2615
g1400
F0.5
sg1401
I3
sg1402
g1403
((dp2616
I00
I3
stRp2617
sg1406
I2
sg1407
F4
sbs(g346
g344
tp2618
g1
(g1397
g3
NtRp2619
(dp2620
g1400
F0.5
sg1401
I4
sg1402
g1403
((dp2621
I00
I4
stRp2622
sg1406
I2
sg1407
F5
sbs(g346
g321
tp2623
g1
(g1397
g3
NtRp2624
(dp2625
g1400
F0.5
sg1401
I4
sg1402
g1403
((dp2626
I00
I4
stRp2627
sg1406
I2
sg1407
F5
sbs(g740
g715
tp2628
g1
(g1397
g3
NtRp2629
(dp2630
g1400
F0.5
sg1401
I5
sg1402
g1403
((dp2631
I00
I5
stRp2632
sg1406
I2
sg1407
F6
sbs(g346
g299
tp2633
g1
(g1397
g3
NtRp2634
(dp2635
g1400
F0.5
sg1401
I4
sg1402
g1403
((dp2636
I00
I3
sI01
I1
stRp2637
sg1406
I2
sg1407
F5
sbs(g1021
g971
tp2638
g1
(g1397
g3
NtRp2639
(dp2640
g1400
F0.5
sg1401
I3
sg1402
g1403
((dp2641
I00
I3
stRp2642
sg1406
I2
sg1407
F4
sbs(g740
g702
tp2643
g1
(g1397
g3
NtRp2644
(dp2645
g1400
F0.5
sg1401
I5
sg1402
g1403
((dp2646
I00
I2
sI01
I3
stRp2647
sg1406
I2
sg1407
F6
sbs(g1021
g990
tp2648
g1
(g1397
g3
NtRp2649
(dp2650
g1400
F0.5
sg1401
I3
sg1402
g1403
((dp2651
I00
I3
stRp2652
sg1406
I2
sg1407
F4
sbs(g1021
g973
tp2653
g1
(g1397
g3
NtRp2654
(dp2655
g1400
F0.5
sg1401
I3
sg1402
g1403
((dp2656
I00
I3
stRp2657
sg1406
I2
sg1407
F4
sbs(g65
g35
tp2658
g1
(g1397
g3
NtRp2659
(dp2660
g1400
F0.5
sg1401
I9
sg1402
g1403
((dp2661
I00
I8
sI01
I1
stRp2662
sg1406
I2
sg1407
F10
sbs(g740
g725
tp2663
g1
(g1397
g3
NtRp2664
(dp2665
g1400
F0.5
sg1401
I5
sg1402
g1403
((dp2666
I00
I5
stRp2667
sg1406
I2
sg1407
F6
sbs(g1021
g1014
tp2668
g1
(g1397
g3
NtRp2669
(dp2670
g1400
F0.5
sg1401
I3
sg1402
g1403
((dp2671
I00
I3
stRp2672
sg1406
I2
sg1407
F4
sbs(g571
g519
tp2673
g1
(g1397
g3
NtRp2674
(dp2675
g1400
F0.5
sg1401
I3
sg1402
g1403
((dp2676
I00
I3
stRp2677
sg1406
I2
sg1407
F4
sbs(g571
g556
tp2678
g1
(g1397
g3
NtRp2679
(dp2680
g1400
F0.5
sg1401
I3
sg1402
g1403
((dp2681
I00
I3
stRp2682
sg1406
I2
sg1407
F4
sbs(g1021
g1003
tp2683
g1
(g1397
g3
NtRp2684
(dp2685
g1400
F0.5
sg1401
I3
sg1402
g1403
((dp2686
I00
I3
stRp2687
sg1406
I2
sg1407
F4
sbs(g346
g343
tp2688
g1
(g1397
g3
NtRp2689
(dp2690
g1400
F0.5
sg1401
I4
sg1402
g1403
((dp2691
I00
I4
stRp2692
sg1406
I1
sg1407
F4.5
sbs(g571
g560
tp2693
g1
(g1397
g3
NtRp2694
(dp2695
g1400
F0.5
sg1401
I3
sg1402
g1403
((dp2696
I00
I3
stRp2697
sg1406
I2
sg1407
F4
sbs(g740
g700
tp2698
g1
(g1397
g3
NtRp2699
(dp2700
g1400
F0.5
sg1401
I5
sg1402
g1403
((dp2701
I00
I5
stRp2702
sg1406
I2
sg1407
F6
sbs(g571
g525
tp2703
g1
(g1397
g3
NtRp2704
(dp2705
g1400
F0.5
sg1401
I3
sg1402
g1403
((dp2706
I00
I3
stRp2707
sg1406
I2
sg1407
F4
sbs(g571
g553
tp2708
g1
(g1397
g3
NtRp2709
(dp2710
g1400
F0.5
sg1401
I3
sg1402
g1403
((dp2711
I00
I3
stRp2712
sg1406
I2
sg1407
F4
sbs(g571
g531
tp2713
g1
(g1397
g3
NtRp2714
(dp2715
g1400
F0.5
sg1401
I3
sg1402
g1403
((dp2716
I00
I3
stRp2717
sg1406
I2
sg1407
F4
sbs(g740
g722
tp2718
g1
(g1397
g3
NtRp2719
(dp2720
g1400
F0.5
sg1401
I5
sg1402
g1403
((dp2721
I00
I3
sI01
I2
stRp2722
sg1406
I2
sg1407
F6
sbs(g346
g342
tp2723
g1
(g1397
g3
NtRp2724
(dp2725
g1400
F0.5
sg1401
I4
sg1402
g1403
((dp2726
I00
I4
stRp2727
sg1406
I2
sg1407
F5
sbs(g65
g42
tp2728
g1
(g1397
g3
NtRp2729
(dp2730
g1400
F0.5
sg1401
I9
sg1402
g1403
((dp2731
I00
I8
sI01
I1
stRp2732
sg1406
I2
sg1407
F10
sbs(g740
g738
tp2733
g1
(g1397
g3
NtRp2734
(dp2735
g1400
F0.5
sg1401
I5
sg1402
g1403
((dp2736
I00
I4
sI01
I1
stRp2737
sg1406
I2
sg1407
F6
sbs(g571
g562
tp2738
g1
(g1397
g3
NtRp2739
(dp2740
g1400
F0.5
sg1401
I3
sg1402
g1403
((dp2741
I00
I3
stRp2742
sg1406
I2
sg1407
F4
sbs(g65
g39
tp2743
g1
(g1397
g3
NtRp2744
(dp2745
g1400
F0.5
sg1401
I9
sg1402
g1403
((dp2746
I00
I9
stRp2747
sg1406
I2
sg1407
F10
sbs(g346
g297
tp2748
g1
(g1397
g3
NtRp2749
(dp2750
g1400
F0.5
sg1401
I4
sg1402
g1403
((dp2751
I00
I4
stRp2752
sg1406
I2
sg1407
F5
sbssS'_label_probdist'
p2753
g1
(g1397
g3
NtRp2754
(dp2755
g1400
F0.5
sg1401
I24
sg1402
g1403
((dp2756
g1021
I3
sg346
I4
sg740
I5
sg65
I9
sg571
I3
stRp2757
sg1406
I5
sg1407
F26.5
sbsbsb.