ccopy_reg
_reconstructor
p1
(ctextblob.classifiers
NaiveBayesClassifier
p2
c__builtin__
object
p3
NtRp4
(dp5
S'format_kwargs'
p6
(dp7
sS'train_features'
p8
(lp9
((dp10
Vcontains(going)
p11
I00
sVcontains('m)
p12
I00
sVcontains(this)
p13
I00
sVcontains(home)
p14
I00
sVcontains(night)
p15
I00
sVcontains(into)
p16
I00
sVcontains(me)
p17
I00
sVcontains(have)
p18
I00
sVcontains(how)
p19
I01
sVcontains(your)
p20
I00
sVcontains(today)
p21
I01
sVcontains(break)
p22
I00
sVcontains(the)
p23
I00
sVcontains(mail)
p24
I00
sVcontains(morning)
p25
I00
sVcontains(coffee)
p26
I00
sVcontains(365)
p27
I00
sVcontains(turtlebot)
p28
I00
sVcontains(next)
p29
I00
sVcontains(bring)
p30
I00
sVcontains(deliver)
p31
I00
sVcontains(paper)
p32
I00
sVcontains(it)
p33
I00
sVcontains(my)
p34
I00
sVcontains(office)
p35
I00
sVcontains(robot)
p36
I00
sVcontains(is)
p37
I00
sVcontains(a)
p38
I00
sVcontains(you)
p39
I01
sVcontains(cup)
p40
I00
sVcontains(see)
p41
I00
sVcontains(pencil)
p42
I00
sVcontains(there)
p43
I00
sVcontains(big)
p44
I00
sVcontains(and)
p45
I00
sVcontains(yes)
p46
I00
sVcontains(up)
p47
I00
sVcontains(door)
p48
I00
sVcontains(boy)
p49
I00
sVcontains(some)
p50
I00
sVcontains(hey)
p51
I00
sVcontains(i)
p52
I00
sVcontains(hi)
p53
I00
sVcontains(letter)
p54
I00
sVcontains(of)
p55
I00
sVcontains(later)
p56
I00
sVcontains(to)
p57
I00
sVcontains(off)
p58
I00
sVcontains(good)
p59
I00
sVcontains(over)
p60
I00
sVcontains(hello)
p61
I01
sVcontains(get)
p62
I00
sVcontains(day)
p63
I00
sVcontains(go)
p64
I00
sVcontains(what)
p65
I00
sVcontains(are)
p66
I01
sVcontains(down)
p67
I00
sVcontains(room)
p68
I00
sVcontains('s)
p69
I00
sVcontains(drop)
p70
I00
sVcontains(hall)
p71
I00
sS'greeting'
p72
tp73
a((dp74
Vcontains(going)
p75
I00
sVcontains('m)
p76
I00
sVcontains(this)
p77
I00
sVcontains(home)
p78
I00
sVcontains(night)
p79
I00
sVcontains(into)
p80
I00
sVcontains(me)
p81
I00
sVcontains(have)
p82
I00
sVcontains(how)
p83
I00
sVcontains(your)
p84
I00
sVcontains(today)
p85
I00
sVcontains(break)
p86
I00
sVcontains(the)
p87
I00
sVcontains(mail)
p88
I00
sVcontains(morning)
p89
I00
sVcontains(coffee)
p90
I00
sVcontains(365)
p91
I00
sVcontains(turtlebot)
p92
I00
sVcontains(next)
p93
I00
sVcontains(bring)
p94
I00
sVcontains(deliver)
p95
I00
sVcontains(paper)
p96
I00
sVcontains(it)
p97
I00
sVcontains(my)
p98
I00
sVcontains(office)
p99
I00
sVcontains(robot)
p100
I00
sVcontains(is)
p101
I00
sVcontains(a)
p102
I00
sVcontains(you)
p103
I00
sVcontains(cup)
p104
I00
sVcontains(see)
p105
I00
sVcontains(pencil)
p106
I00
sVcontains(there)
p107
I00
sVcontains(big)
p108
I00
sVcontains(and)
p109
I00
sVcontains(yes)
p110
I00
sVcontains(up)
p111
I01
sVcontains(door)
p112
I00
sVcontains(boy)
p113
I00
sVcontains(some)
p114
I00
sVcontains(hey)
p115
I00
sVcontains(i)
p116
I00
sVcontains(hi)
p117
I00
sVcontains(letter)
p118
I00
sVcontains(of)
p119
I00
sVcontains(later)
p120
I00
sVcontains(to)
p121
I00
sVcontains(off)
p122
I00
sVcontains(good)
p123
I00
sVcontains(over)
p124
I00
sVcontains(hello)
p125
I00
sVcontains(get)
p126
I00
sVcontains(day)
p127
I00
sVcontains(go)
p128
I00
sVcontains(what)
p129
I01
sVcontains(are)
p130
I00
sVcontains(down)
p131
I00
sVcontains(room)
p132
I00
sVcontains('s)
p133
I00
sVcontains(drop)
p134
I00
sVcontains(hall)
p135
I00
sg72
tp136
a((dp137
Vcontains(going)
p138
I01
sVcontains('m)
p139
I00
sVcontains(this)
p140
I00
sVcontains(home)
p141
I00
sVcontains(night)
p142
I00
sVcontains(into)
p143
I00
sVcontains(me)
p144
I00
sVcontains(have)
p145
I00
sVcontains(how)
p146
I01
sVcontains(your)
p147
I00
sVcontains(today)
p148
I00
sVcontains(break)
p149
I00
sVcontains(the)
p150
I00
sVcontains(mail)
p151
I00
sVcontains(morning)
p152
I00
sVcontains(coffee)
p153
I00
sVcontains(365)
p154
I00
sVcontains(turtlebot)
p155
I00
sVcontains(next)
p156
I00
sVcontains(bring)
p157
I00
sVcontains(deliver)
p158
I00
sVcontains(paper)
p159
I00
sVcontains(it)
p160
I01
sVcontains(my)
p161
I00
sVcontains(office)
p162
I00
sVcontains(robot)
p163
I00
sVcontains(is)
p164
I00
sVcontains(a)
p165
I00
sVcontains(you)
p166
I00
sVcontains(cup)
p167
I00
sVcontains(see)
p168
I00
sVcontains(pencil)
p169
I00
sVcontains(there)
p170
I00
sVcontains(big)
p171
I00
sVcontains(and)
p172
I00
sVcontains(yes)
p173
I00
sVcontains(up)
p174
I00
sVcontains(door)
p175
I00
sVcontains(boy)
p176
I00
sVcontains(some)
p177
I00
sVcontains(hey)
p178
I00
sVcontains(i)
p179
I00
sVcontains(hi)
p180
I00
sVcontains(letter)
p181
I00
sVcontains(of)
p182
I00
sVcontains(later)
p183
I00
sVcontains(to)
p184
I00
sVcontains(off)
p185
I00
sVcontains(good)
p186
I00
sVcontains(over)
p187
I00
sVcontains(hello)
p188
I00
sVcontains(get)
p189
I00
sVcontains(day)
p190
I00
sVcontains(go)
p191
I00
sVcontains(what)
p192
I00
sVcontains(are)
p193
I00
sVcontains(down)
p194
I00
sVcontains(room)
p195
I00
sVcontains('s)
p196
I00
sVcontains(drop)
p197
I00
sVcontains(hall)
p198
I00
sg72
tp199
a((dp200
Vcontains(going)
p201
I00
sVcontains('m)
p202
I00
sVcontains(this)
p203
I00
sVcontains(home)
p204
I00
sVcontains(night)
p205
I00
sVcontains(into)
p206
I00
sVcontains(me)
p207
I00
sVcontains(have)
p208
I00
sVcontains(how)
p209
I01
sVcontains(your)
p210
I01
sVcontains(today)
p211
I00
sVcontains(break)
p212
I00
sVcontains(the)
p213
I00
sVcontains(mail)
p214
I00
sVcontains(morning)
p215
I00
sVcontains(coffee)
p216
I00
sVcontains(365)
p217
I00
sVcontains(turtlebot)
p218
I00
sVcontains(next)
p219
I00
sVcontains(bring)
p220
I00
sVcontains(deliver)
p221
I00
sVcontains(paper)
p222
I00
sVcontains(it)
p223
I00
sVcontains(my)
p224
I00
sVcontains(office)
p225
I00
sVcontains(robot)
p226
I00
sVcontains(is)
p227
I01
sVcontains(a)
p228
I00
sVcontains(you)
p229
I00
sVcontains(cup)
p230
I00
sVcontains(see)
p231
I00
sVcontains(pencil)
p232
I00
sVcontains(there)
p233
I00
sVcontains(big)
p234
I00
sVcontains(and)
p235
I00
sVcontains(yes)
p236
I00
sVcontains(up)
p237
I00
sVcontains(door)
p238
I00
sVcontains(boy)
p239
I00
sVcontains(some)
p240
I00
sVcontains(hey)
p241
I01
sVcontains(i)
p242
I00
sVcontains(hi)
p243
I00
sVcontains(letter)
p244
I00
sVcontains(of)
p245
I00
sVcontains(later)
p246
I00
sVcontains(to)
p247
I00
sVcontains(off)
p248
I00
sVcontains(good)
p249
I00
sVcontains(over)
p250
I00
sVcontains(hello)
p251
I00
sVcontains(get)
p252
I00
sVcontains(day)
p253
I01
sVcontains(go)
p254
I00
sVcontains(what)
p255
I00
sVcontains(are)
p256
I00
sVcontains(down)
p257
I00
sVcontains(room)
p258
I00
sVcontains('s)
p259
I00
sVcontains(drop)
p260
I00
sVcontains(hall)
p261
I00
sg72
tp262
a((dp263
Vcontains(going)
p264
I00
sVcontains('m)
p265
I00
sVcontains(this)
p266
I00
sVcontains(home)
p267
I00
sVcontains(night)
p268
I00
sVcontains(into)
p269
I00
sVcontains(me)
p270
I00
sVcontains(have)
p271
I00
sVcontains(how)
p272
I00
sVcontains(your)
p273
I00
sVcontains(today)
p274
I00
sVcontains(break)
p275
I00
sVcontains(the)
p276
I00
sVcontains(mail)
p277
I00
sVcontains(morning)
p278
I01
sVcontains(coffee)
p279
I00
sVcontains(365)
p280
I00
sVcontains(turtlebot)
p281
I00
sVcontains(next)
p282
I00
sVcontains(bring)
p283
I00
sVcontains(deliver)
p284
I00
sVcontains(paper)
p285
I00
sVcontains(it)
p286
I00
sVcontains(my)
p287
I00
sVcontains(office)
p288
I00
sVcontains(robot)
p289
I00
sVcontains(is)
p290
I00
sVcontains(a)
p291
I00
sVcontains(you)
p292
I00
sVcontains(cup)
p293
I00
sVcontains(see)
p294
I00
sVcontains(pencil)
p295
I00
sVcontains(there)
p296
I00
sVcontains(big)
p297
I00
sVcontains(and)
p298
I00
sVcontains(yes)
p299
I00
sVcontains(up)
p300
I00
sVcontains(door)
p301
I00
sVcontains(boy)
p302
I00
sVcontains(some)
p303
I00
sVcontains(hey)
p304
I00
sVcontains(i)
p305
I00
sVcontains(hi)
p306
I00
sVcontains(letter)
p307
I00
sVcontains(of)
p308
I00
sVcontains(later)
p309
I00
sVcontains(to)
p310
I00
sVcontains(off)
p311
I00
sVcontains(good)
p312
I01
sVcontains(over)
p313
I00
sVcontains(hello)
p314
I00
sVcontains(get)
p315
I00
sVcontains(day)
p316
I00
sVcontains(go)
p317
I00
sVcontains(what)
p318
I00
sVcontains(are)
p319
I00
sVcontains(down)
p320
I00
sVcontains(room)
p321
I00
sVcontains('s)
p322
I00
sVcontains(drop)
p323
I00
sVcontains(hall)
p324
I00
sg72
tp325
a((dp326
Vcontains(going)
p327
I00
sVcontains('m)
p328
I00
sVcontains(this)
p329
I00
sVcontains(home)
p330
I00
sVcontains(night)
p331
I01
sVcontains(into)
p332
I00
sVcontains(me)
p333
I00
sVcontains(have)
p334
I00
sVcontains(how)
p335
I00
sVcontains(your)
p336
I00
sVcontains(today)
p337
I00
sVcontains(break)
p338
I00
sVcontains(the)
p339
I00
sVcontains(mail)
p340
I00
sVcontains(morning)
p341
I00
sVcontains(coffee)
p342
I00
sVcontains(365)
p343
I00
sVcontains(turtlebot)
p344
I00
sVcontains(next)
p345
I00
sVcontains(bring)
p346
I00
sVcontains(deliver)
p347
I00
sVcontains(paper)
p348
I00
sVcontains(it)
p349
I00
sVcontains(my)
p350
I00
sVcontains(office)
p351
I00
sVcontains(robot)
p352
I00
sVcontains(is)
p353
I00
sVcontains(a)
p354
I00
sVcontains(you)
p355
I00
sVcontains(cup)
p356
I00
sVcontains(see)
p357
I00
sVcontains(pencil)
p358
I00
sVcontains(there)
p359
I00
sVcontains(big)
p360
I00
sVcontains(and)
p361
I00
sVcontains(yes)
p362
I00
sVcontains(up)
p363
I00
sVcontains(door)
p364
I00
sVcontains(boy)
p365
I00
sVcontains(some)
p366
I00
sVcontains(hey)
p367
I00
sVcontains(i)
p368
I00
sVcontains(hi)
p369
I00
sVcontains(letter)
p370
I00
sVcontains(of)
p371
I00
sVcontains(later)
p372
I00
sVcontains(to)
p373
I00
sVcontains(off)
p374
I00
sVcontains(good)
p375
I01
sVcontains(over)
p376
I00
sVcontains(hello)
p377
I00
sVcontains(get)
p378
I00
sVcontains(day)
p379
I00
sVcontains(go)
p380
I00
sVcontains(what)
p381
I00
sVcontains(are)
p382
I00
sVcontains(down)
p383
I00
sVcontains(room)
p384
I00
sVcontains('s)
p385
I00
sVcontains(drop)
p386
I00
sVcontains(hall)
p387
I00
sS'exit'
p388
tp389
a((dp390
Vcontains(going)
p391
I01
sVcontains('m)
p392
I00
sVcontains(this)
p393
I00
sVcontains(home)
p394
I01
sVcontains(night)
p395
I00
sVcontains(into)
p396
I00
sVcontains(me)
p397
I00
sVcontains(have)
p398
I00
sVcontains(how)
p399
I00
sVcontains(your)
p400
I00
sVcontains(today)
p401
I00
sVcontains(break)
p402
I00
sVcontains(the)
p403
I00
sVcontains(mail)
p404
I00
sVcontains(morning)
p405
I00
sVcontains(coffee)
p406
I00
sVcontains(365)
p407
I00
sVcontains(turtlebot)
p408
I00
sVcontains(next)
p409
I00
sVcontains(bring)
p410
I00
sVcontains(deliver)
p411
I00
sVcontains(paper)
p412
I00
sVcontains(it)
p413
I00
sVcontains(my)
p414
I00
sVcontains(office)
p415
I00
sVcontains(robot)
p416
I00
sVcontains(is)
p417
I00
sVcontains(a)
p418
I00
sVcontains(you)
p419
I00
sVcontains(cup)
p420
I00
sVcontains(see)
p421
I00
sVcontains(pencil)
p422
I00
sVcontains(there)
p423
I00
sVcontains(big)
p424
I00
sVcontains(and)
p425
I00
sVcontains(yes)
p426
I00
sVcontains(up)
p427
I00
sVcontains(door)
p428
I00
sVcontains(boy)
p429
I00
sVcontains(some)
p430
I00
sVcontains(hey)
p431
I00
sVcontains(i)
p432
I01
sVcontains(hi)
p433
I00
sVcontains(letter)
p434
I00
sVcontains(of)
p435
I00
sVcontains(later)
p436
I00
sVcontains(to)
p437
I00
sVcontains(off)
p438
I00
sVcontains(good)
p439
I00
sVcontains(over)
p440
I00
sVcontains(hello)
p441
I00
sVcontains(get)
p442
I00
sVcontains(day)
p443
I00
sVcontains(go)
p444
I00
sVcontains(what)
p445
I00
sVcontains(are)
p446
I00
sVcontains(down)
p447
I00
sVcontains(room)
p448
I00
sVcontains('s)
p449
I00
sVcontains(drop)
p450
I00
sVcontains(hall)
p451
I00
sS'exit'
p452
tp453
a((dp454
Vcontains(going)
p455
I00
sVcontains('m)
p456
I00
sVcontains(this)
p457
I00
sVcontains(home)
p458
I00
sVcontains(night)
p459
I00
sVcontains(into)
p460
I00
sVcontains(me)
p461
I00
sVcontains(have)
p462
I01
sVcontains(how)
p463
I00
sVcontains(your)
p464
I00
sVcontains(today)
p465
I00
sVcontains(break)
p466
I00
sVcontains(the)
p467
I00
sVcontains(mail)
p468
I00
sVcontains(morning)
p469
I00
sVcontains(coffee)
p470
I00
sVcontains(365)
p471
I00
sVcontains(turtlebot)
p472
I00
sVcontains(next)
p473
I00
sVcontains(bring)
p474
I00
sVcontains(deliver)
p475
I00
sVcontains(paper)
p476
I00
sVcontains(it)
p477
I00
sVcontains(my)
p478
I00
sVcontains(office)
p479
I00
sVcontains(robot)
p480
I00
sVcontains(is)
p481
I00
sVcontains(a)
p482
I01
sVcontains(you)
p483
I00
sVcontains(cup)
p484
I00
sVcontains(see)
p485
I00
sVcontains(pencil)
p486
I00
sVcontains(there)
p487
I00
sVcontains(big)
p488
I00
sVcontains(and)
p489
I00
sVcontains(yes)
p490
I00
sVcontains(up)
p491
I00
sVcontains(door)
p492
I00
sVcontains(boy)
p493
I00
sVcontains(some)
p494
I00
sVcontains(hey)
p495
I00
sVcontains(i)
p496
I00
sVcontains(hi)
p497
I00
sVcontains(letter)
p498
I00
sVcontains(of)
p499
I00
sVcontains(later)
p500
I00
sVcontains(to)
p501
I00
sVcontains(off)
p502
I00
sVcontains(good)
p503
I01
sVcontains(over)
p504
I00
sVcontains(hello)
p505
I00
sVcontains(get)
p506
I00
sVcontains(day)
p507
I01
sVcontains(go)
p508
I00
sVcontains(what)
p509
I00
sVcontains(are)
p510
I00
sVcontains(down)
p511
I00
sVcontains(room)
p512
I00
sVcontains('s)
p513
I00
sVcontains(drop)
p514
I00
sVcontains(hall)
p515
I00
sS'exit'
p516
tp517
a((dp518
Vcontains(going)
p519
I00
sVcontains('m)
p520
I00
sVcontains(this)
p521
I00
sVcontains(home)
p522
I00
sVcontains(night)
p523
I00
sVcontains(into)
p524
I00
sVcontains(me)
p525
I00
sVcontains(have)
p526
I00
sVcontains(how)
p527
I00
sVcontains(your)
p528
I00
sVcontains(today)
p529
I00
sVcontains(break)
p530
I00
sVcontains(the)
p531
I00
sVcontains(mail)
p532
I00
sVcontains(morning)
p533
I00
sVcontains(coffee)
p534
I00
sVcontains(365)
p535
I00
sVcontains(turtlebot)
p536
I00
sVcontains(next)
p537
I00
sVcontains(bring)
p538
I00
sVcontains(deliver)
p539
I00
sVcontains(paper)
p540
I00
sVcontains(it)
p541
I00
sVcontains(my)
p542
I00
sVcontains(office)
p543
I00
sVcontains(robot)
p544
I00
sVcontains(is)
p545
I00
sVcontains(a)
p546
I00
sVcontains(you)
p547
I01
sVcontains(cup)
p548
I00
sVcontains(see)
p549
I01
sVcontains(pencil)
p550
I00
sVcontains(there)
p551
I00
sVcontains(big)
p552
I00
sVcontains(and)
p553
I00
sVcontains(yes)
p554
I00
sVcontains(up)
p555
I00
sVcontains(door)
p556
I00
sVcontains(boy)
p557
I00
sVcontains(some)
p558
I00
sVcontains(hey)
p559
I00
sVcontains(i)
p560
I00
sVcontains(hi)
p561
I00
sVcontains(letter)
p562
I00
sVcontains(of)
p563
I00
sVcontains(later)
p564
I01
sVcontains(to)
p565
I00
sVcontains(off)
p566
I00
sVcontains(good)
p567
I00
sVcontains(over)
p568
I00
sVcontains(hello)
p569
I00
sVcontains(get)
p570
I00
sVcontains(day)
p571
I00
sVcontains(go)
p572
I00
sVcontains(what)
p573
I00
sVcontains(are)
p574
I00
sVcontains(down)
p575
I00
sVcontains(room)
p576
I00
sVcontains('s)
p577
I00
sVcontains(drop)
p578
I00
sVcontains(hall)
p579
I00
sS'exit'
p580
tp581
a((dp582
Vcontains(going)
p583
I00
sVcontains('m)
p584
I00
sVcontains(this)
p585
I00
sVcontains(home)
p586
I00
sVcontains(night)
p587
I00
sVcontains(into)
p588
I00
sVcontains(me)
p589
I01
sVcontains(have)
p590
I00
sVcontains(how)
p591
I00
sVcontains(your)
p592
I00
sVcontains(today)
p593
I00
sVcontains(break)
p594
I00
sVcontains(the)
p595
I00
sVcontains(mail)
p596
I00
sVcontains(morning)
p597
I00
sVcontains(coffee)
p598
I01
sVcontains(365)
p599
I00
sVcontains(turtlebot)
p600
I00
sVcontains(next)
p601
I00
sVcontains(bring)
p602
I00
sVcontains(deliver)
p603
I00
sVcontains(paper)
p604
I00
sVcontains(it)
p605
I00
sVcontains(my)
p606
I00
sVcontains(office)
p607
I00
sVcontains(robot)
p608
I00
sVcontains(is)
p609
I00
sVcontains(a)
p610
I00
sVcontains(you)
p611
I00
sVcontains(cup)
p612
I00
sVcontains(see)
p613
I00
sVcontains(pencil)
p614
I00
sVcontains(there)
p615
I00
sVcontains(big)
p616
I00
sVcontains(and)
p617
I01
sVcontains(yes)
p618
I00
sVcontains(up)
p619
I00
sVcontains(door)
p620
I00
sVcontains(boy)
p621
I00
sVcontains(some)
p622
I01
sVcontains(hey)
p623
I00
sVcontains(i)
p624
I00
sVcontains(hi)
p625
I00
sVcontains(letter)
p626
I00
sVcontains(of)
p627
I00
sVcontains(later)
p628
I00
sVcontains(to)
p629
I00
sVcontains(off)
p630
I00
sVcontains(good)
p631
I00
sVcontains(over)
p632
I00
sVcontains(hello)
p633
I00
sVcontains(get)
p634
I01
sVcontains(day)
p635
I00
sVcontains(go)
p636
I01
sVcontains(what)
p637
I00
sVcontains(are)
p638
I00
sVcontains(down)
p639
I00
sVcontains(room)
p640
I00
sVcontains('s)
p641
I00
sVcontains(drop)
p642
I00
sVcontains(hall)
p643
I00
sS'get'
p644
tp645
a((dp646
Vcontains(going)
p647
I00
sVcontains('m)
p648
I00
sVcontains(this)
p649
I00
sVcontains(home)
p650
I00
sVcontains(night)
p651
I00
sVcontains(into)
p652
I00
sVcontains(me)
p653
I01
sVcontains(have)
p654
I00
sVcontains(how)
p655
I00
sVcontains(your)
p656
I00
sVcontains(today)
p657
I00
sVcontains(break)
p658
I00
sVcontains(the)
p659
I00
sVcontains(mail)
p660
I00
sVcontains(morning)
p661
I00
sVcontains(coffee)
p662
I00
sVcontains(365)
p663
I00
sVcontains(turtlebot)
p664
I00
sVcontains(next)
p665
I00
sVcontains(bring)
p666
I00
sVcontains(deliver)
p667
I00
sVcontains(paper)
p668
I00
sVcontains(it)
p669
I00
sVcontains(my)
p670
I00
sVcontains(office)
p671
I00
sVcontains(robot)
p672
I00
sVcontains(is)
p673
I00
sVcontains(a)
p674
I01
sVcontains(you)
p675
I00
sVcontains(cup)
p676
I00
sVcontains(see)
p677
I00
sVcontains(pencil)
p678
I01
sVcontains(there)
p679
I00
sVcontains(big)
p680
I00
sVcontains(and)
p681
I01
sVcontains(yes)
p682
I00
sVcontains(up)
p683
I00
sVcontains(door)
p684
I00
sVcontains(boy)
p685
I00
sVcontains(some)
p686
I00
sVcontains(hey)
p687
I00
sVcontains(i)
p688
I00
sVcontains(hi)
p689
I00
sVcontains(letter)
p690
I00
sVcontains(of)
p691
I00
sVcontains(later)
p692
I00
sVcontains(to)
p693
I00
sVcontains(off)
p694
I00
sVcontains(good)
p695
I00
sVcontains(over)
p696
I00
sVcontains(hello)
p697
I00
sVcontains(get)
p698
I01
sVcontains(day)
p699
I00
sVcontains(go)
p700
I01
sVcontains(what)
p701
I00
sVcontains(are)
p702
I00
sVcontains(down)
p703
I00
sVcontains(room)
p704
I00
sVcontains('s)
p705
I00
sVcontains(drop)
p706
I00
sVcontains(hall)
p707
I00
sS'get'
p708
tp709
a((dp710
Vcontains(going)
p711
I00
sVcontains('m)
p712
I00
sVcontains(this)
p713
I00
sVcontains(home)
p714
I00
sVcontains(night)
p715
I00
sVcontains(into)
p716
I00
sVcontains(me)
p717
I00
sVcontains(have)
p718
I00
sVcontains(how)
p719
I00
sVcontains(your)
p720
I00
sVcontains(today)
p721
I00
sVcontains(break)
p722
I01
sVcontains(the)
p723
I01
sVcontains(mail)
p724
I00
sVcontains(morning)
p725
I00
sVcontains(coffee)
p726
I01
sVcontains(365)
p727
I00
sVcontains(turtlebot)
p728
I00
sVcontains(next)
p729
I00
sVcontains(bring)
p730
I00
sVcontains(deliver)
p731
I00
sVcontains(paper)
p732
I00
sVcontains(it)
p733
I00
sVcontains(my)
p734
I01
sVcontains(office)
p735
I00
sVcontains(robot)
p736
I00
sVcontains(is)
p737
I00
sVcontains(a)
p738
I00
sVcontains(you)
p739
I00
sVcontains(cup)
p740
I00
sVcontains(see)
p741
I00
sVcontains(pencil)
p742
I00
sVcontains(there)
p743
I00
sVcontains(big)
p744
I00
sVcontains(and)
p745
I01
sVcontains(yes)
p746
I00
sVcontains(up)
p747
I00
sVcontains(door)
p748
I00
sVcontains(boy)
p749
I00
sVcontains(some)
p750
I00
sVcontains(hey)
p751
I00
sVcontains(i)
p752
I00
sVcontains(hi)
p753
I00
sVcontains(letter)
p754
I00
sVcontains(of)
p755
I00
sVcontains(later)
p756
I00
sVcontains(to)
p757
I01
sVcontains(off)
p758
I00
sVcontains(good)
p759
I00
sVcontains(over)
p760
I00
sVcontains(hello)
p761
I00
sVcontains(get)
p762
I01
sVcontains(day)
p763
I00
sVcontains(go)
p764
I01
sVcontains(what)
p765
I00
sVcontains(are)
p766
I00
sVcontains(down)
p767
I00
sVcontains(room)
p768
I01
sVcontains('s)
p769
I00
sVcontains(drop)
p770
I00
sVcontains(hall)
p771
I00
sS'get'
p772
tp773
a((dp774
Vcontains(going)
p775
I00
sVcontains('m)
p776
I00
sVcontains(this)
p777
I01
sVcontains(home)
p778
I00
sVcontains(night)
p779
I00
sVcontains(into)
p780
I00
sVcontains(me)
p781
I00
sVcontains(have)
p782
I00
sVcontains(how)
p783
I00
sVcontains(your)
p784
I00
sVcontains(today)
p785
I00
sVcontains(break)
p786
I00
sVcontains(the)
p787
I01
sVcontains(mail)
p788
I01
sVcontains(morning)
p789
I00
sVcontains(coffee)
p790
I00
sVcontains(365)
p791
I00
sVcontains(turtlebot)
p792
I00
sVcontains(next)
p793
I00
sVcontains(bring)
p794
I00
sVcontains(deliver)
p795
I01
sVcontains(paper)
p796
I00
sVcontains(it)
p797
I00
sVcontains(my)
p798
I00
sVcontains(office)
p799
I00
sVcontains(robot)
p800
I00
sVcontains(is)
p801
I00
sVcontains(a)
p802
I00
sVcontains(you)
p803
I00
sVcontains(cup)
p804
I00
sVcontains(see)
p805
I00
sVcontains(pencil)
p806
I00
sVcontains(there)
p807
I00
sVcontains(big)
p808
I00
sVcontains(and)
p809
I01
sVcontains(yes)
p810
I00
sVcontains(up)
p811
I00
sVcontains(door)
p812
I00
sVcontains(boy)
p813
I00
sVcontains(some)
p814
I00
sVcontains(hey)
p815
I00
sVcontains(i)
p816
I00
sVcontains(hi)
p817
I00
sVcontains(letter)
p818
I00
sVcontains(of)
p819
I00
sVcontains(later)
p820
I00
sVcontains(to)
p821
I01
sVcontains(off)
p822
I00
sVcontains(good)
p823
I00
sVcontains(over)
p824
I00
sVcontains(hello)
p825
I00
sVcontains(get)
p826
I00
sVcontains(day)
p827
I00
sVcontains(go)
p828
I01
sVcontains(what)
p829
I00
sVcontains(are)
p830
I00
sVcontains(down)
p831
I01
sVcontains(room)
p832
I01
sVcontains('s)
p833
I00
sVcontains(drop)
p834
I00
sVcontains(hall)
p835
I01
sS'deliver'
p836
tp837
a((dp838
Vcontains(going)
p839
I00
sVcontains('m)
p840
I00
sVcontains(this)
p841
I01
sVcontains(home)
p842
I00
sVcontains(night)
p843
I00
sVcontains(into)
p844
I00
sVcontains(me)
p845
I00
sVcontains(have)
p846
I00
sVcontains(how)
p847
I00
sVcontains(your)
p848
I00
sVcontains(today)
p849
I00
sVcontains(break)
p850
I00
sVcontains(the)
p851
I00
sVcontains(mail)
p852
I00
sVcontains(morning)
p853
I00
sVcontains(coffee)
p854
I00
sVcontains(365)
p855
I00
sVcontains(turtlebot)
p856
I00
sVcontains(next)
p857
I00
sVcontains(bring)
p858
I00
sVcontains(deliver)
p859
I00
sVcontains(paper)
p860
I01
sVcontains(it)
p861
I00
sVcontains(my)
p862
I01
sVcontains(office)
p863
I01
sVcontains(robot)
p864
I00
sVcontains(is)
p865
I00
sVcontains(a)
p866
I00
sVcontains(you)
p867
I00
sVcontains(cup)
p868
I00
sVcontains(see)
p869
I00
sVcontains(pencil)
p870
I00
sVcontains(there)
p871
I00
sVcontains(big)
p872
I00
sVcontains(and)
p873
I01
sVcontains(yes)
p874
I00
sVcontains(up)
p875
I00
sVcontains(door)
p876
I00
sVcontains(boy)
p877
I00
sVcontains(some)
p878
I00
sVcontains(hey)
p879
I00
sVcontains(i)
p880
I00
sVcontains(hi)
p881
I00
sVcontains(letter)
p882
I00
sVcontains(of)
p883
I00
sVcontains(later)
p884
I00
sVcontains(to)
p885
I01
sVcontains(off)
p886
I01
sVcontains(good)
p887
I00
sVcontains(over)
p888
I00
sVcontains(hello)
p889
I00
sVcontains(get)
p890
I00
sVcontains(day)
p891
I00
sVcontains(go)
p892
I01
sVcontains(what)
p893
I00
sVcontains(are)
p894
I00
sVcontains(down)
p895
I00
sVcontains(room)
p896
I00
sVcontains('s)
p897
I00
sVcontains(drop)
p898
I01
sVcontains(hall)
p899
I00
sg836
tp900
a((dp901
Vcontains(going)
p902
I00
sVcontains('m)
p903
I00
sVcontains(this)
p904
I01
sVcontains(home)
p905
I00
sVcontains(night)
p906
I00
sVcontains(into)
p907
I00
sVcontains(me)
p908
I00
sVcontains(have)
p909
I00
sVcontains(how)
p910
I00
sVcontains(your)
p911
I00
sVcontains(today)
p912
I00
sVcontains(break)
p913
I00
sVcontains(the)
p914
I01
sVcontains(mail)
p915
I00
sVcontains(morning)
p916
I00
sVcontains(coffee)
p917
I01
sVcontains(365)
p918
I00
sVcontains(turtlebot)
p919
I00
sVcontains(next)
p920
I00
sVcontains(bring)
p921
I01
sVcontains(deliver)
p922
I00
sVcontains(paper)
p923
I00
sVcontains(it)
p924
I00
sVcontains(my)
p925
I01
sVcontains(office)
p926
I01
sVcontains(robot)
p927
I00
sVcontains(is)
p928
I00
sVcontains(a)
p929
I00
sVcontains(you)
p930
I00
sVcontains(cup)
p931
I01
sVcontains(see)
p932
I00
sVcontains(pencil)
p933
I00
sVcontains(there)
p934
I00
sVcontains(big)
p935
I00
sVcontains(and)
p936
I00
sVcontains(yes)
p937
I00
sVcontains(up)
p938
I00
sVcontains(door)
p939
I00
sVcontains(boy)
p940
I00
sVcontains(some)
p941
I00
sVcontains(hey)
p942
I00
sVcontains(i)
p943
I00
sVcontains(hi)
p944
I00
sVcontains(letter)
p945
I00
sVcontains(of)
p946
I01
sVcontains(later)
p947
I00
sVcontains(to)
p948
I01
sVcontains(off)
p949
I00
sVcontains(good)
p950
I00
sVcontains(over)
p951
I00
sVcontains(hello)
p952
I00
sVcontains(get)
p953
I00
sVcontains(day)
p954
I00
sVcontains(go)
p955
I00
sVcontains(what)
p956
I00
sVcontains(are)
p957
I00
sVcontains(down)
p958
I01
sVcontains(room)
p959
I00
sVcontains('s)
p960
I00
sVcontains(drop)
p961
I00
sVcontains(hall)
p962
I01
sg836
tp963
a((dp964
Vcontains(going)
p965
I00
sVcontains('m)
p966
I00
sVcontains(this)
p967
I01
sVcontains(home)
p968
I00
sVcontains(night)
p969
I00
sVcontains(into)
p970
I00
sVcontains(me)
p971
I00
sVcontains(have)
p972
I00
sVcontains(how)
p973
I00
sVcontains(your)
p974
I00
sVcontains(today)
p975
I00
sVcontains(break)
p976
I00
sVcontains(the)
p977
I01
sVcontains(mail)
p978
I01
sVcontains(morning)
p979
I00
sVcontains(coffee)
p980
I00
sVcontains(365)
p981
I00
sVcontains(turtlebot)
p982
I00
sVcontains(next)
p983
I00
sVcontains(bring)
p984
I01
sVcontains(deliver)
p985
I00
sVcontains(paper)
p986
I00
sVcontains(it)
p987
I00
sVcontains(my)
p988
I00
sVcontains(office)
p989
I00
sVcontains(robot)
p990
I00
sVcontains(is)
p991
I00
sVcontains(a)
p992
I00
sVcontains(you)
p993
I00
sVcontains(cup)
p994
I00
sVcontains(see)
p995
I00
sVcontains(pencil)
p996
I00
sVcontains(there)
p997
I00
sVcontains(big)
p998
I00
sVcontains(and)
p999
I00
sVcontains(yes)
p1000
I00
sVcontains(up)
p1001
I00
sVcontains(door)
p1002
I00
sVcontains(boy)
p1003
I00
sVcontains(some)
p1004
I00
sVcontains(hey)
p1005
I00
sVcontains(i)
p1006
I00
sVcontains(hi)
p1007
I00
sVcontains(letter)
p1008
I01
sVcontains(of)
p1009
I00
sVcontains(later)
p1010
I00
sVcontains(to)
p1011
I01
sVcontains(off)
p1012
I00
sVcontains(good)
p1013
I00
sVcontains(over)
p1014
I00
sVcontains(hello)
p1015
I00
sVcontains(get)
p1016
I00
sVcontains(day)
p1017
I00
sVcontains(go)
p1018
I00
sVcontains(what)
p1019
I00
sVcontains(are)
p1020
I00
sVcontains(down)
p1021
I01
sVcontains(room)
p1022
I01
sVcontains('s)
p1023
I00
sVcontains(drop)
p1024
I00
sVcontains(hall)
p1025
I01
sg836
tp1026
a((dp1027
Vcontains(going)
p1028
I00
sVcontains('m)
p1029
I00
sVcontains(this)
p1030
I01
sVcontains(home)
p1031
I00
sVcontains(night)
p1032
I00
sVcontains(into)
p1033
I00
sVcontains(me)
p1034
I00
sVcontains(have)
p1035
I00
sVcontains(how)
p1036
I00
sVcontains(your)
p1037
I00
sVcontains(today)
p1038
I00
sVcontains(break)
p1039
I00
sVcontains(the)
p1040
I00
sVcontains(mail)
p1041
I00
sVcontains(morning)
p1042
I00
sVcontains(coffee)
p1043
I00
sVcontains(365)
p1044
I01
sVcontains(turtlebot)
p1045
I00
sVcontains(next)
p1046
I00
sVcontains(bring)
p1047
I00
sVcontains(deliver)
p1048
I01
sVcontains(paper)
p1049
I00
sVcontains(it)
p1050
I00
sVcontains(my)
p1051
I00
sVcontains(office)
p1052
I00
sVcontains(robot)
p1053
I00
sVcontains(is)
p1054
I00
sVcontains(a)
p1055
I00
sVcontains(you)
p1056
I00
sVcontains(cup)
p1057
I00
sVcontains(see)
p1058
I00
sVcontains(pencil)
p1059
I00
sVcontains(there)
p1060
I00
sVcontains(big)
p1061
I00
sVcontains(and)
p1062
I00
sVcontains(yes)
p1063
I00
sVcontains(up)
p1064
I00
sVcontains(door)
p1065
I00
sVcontains(boy)
p1066
I00
sVcontains(some)
p1067
I00
sVcontains(hey)
p1068
I00
sVcontains(i)
p1069
I00
sVcontains(hi)
p1070
I00
sVcontains(letter)
p1071
I01
sVcontains(of)
p1072
I00
sVcontains(later)
p1073
I00
sVcontains(to)
p1074
I01
sVcontains(off)
p1075
I00
sVcontains(good)
p1076
I00
sVcontains(over)
p1077
I00
sVcontains(hello)
p1078
I00
sVcontains(get)
p1079
I00
sVcontains(day)
p1080
I00
sVcontains(go)
p1081
I00
sVcontains(what)
p1082
I00
sVcontains(are)
p1083
I00
sVcontains(down)
p1084
I00
sVcontains(room)
p1085
I01
sVcontains('s)
p1086
I00
sVcontains(drop)
p1087
I00
sVcontains(hall)
p1088
I00
sg836
tp1089
a((dp1090
Vcontains(going)
p1091
I00
sVcontains('m)
p1092
I00
sVcontains(this)
p1093
I00
sVcontains(home)
p1094
I00
sVcontains(night)
p1095
I00
sVcontains(into)
p1096
I00
sVcontains(me)
p1097
I00
sVcontains(have)
p1098
I00
sVcontains(how)
p1099
I00
sVcontains(your)
p1100
I00
sVcontains(today)
p1101
I00
sVcontains(break)
p1102
I01
sVcontains(the)
p1103
I01
sVcontains(mail)
p1104
I00
sVcontains(morning)
p1105
I00
sVcontains(coffee)
p1106
I00
sVcontains(365)
p1107
I00
sVcontains(turtlebot)
p1108
I00
sVcontains(next)
p1109
I00
sVcontains(bring)
p1110
I00
sVcontains(deliver)
p1111
I00
sVcontains(paper)
p1112
I00
sVcontains(it)
p1113
I00
sVcontains(my)
p1114
I00
sVcontains(office)
p1115
I00
sVcontains(robot)
p1116
I00
sVcontains(is)
p1117
I00
sVcontains(a)
p1118
I00
sVcontains(you)
p1119
I00
sVcontains(cup)
p1120
I00
sVcontains(see)
p1121
I00
sVcontains(pencil)
p1122
I00
sVcontains(there)
p1123
I00
sVcontains(big)
p1124
I00
sVcontains(and)
p1125
I00
sVcontains(yes)
p1126
I00
sVcontains(up)
p1127
I00
sVcontains(door)
p1128
I00
sVcontains(boy)
p1129
I00
sVcontains(some)
p1130
I00
sVcontains(hey)
p1131
I00
sVcontains(i)
p1132
I00
sVcontains(hi)
p1133
I00
sVcontains(letter)
p1134
I00
sVcontains(of)
p1135
I00
sVcontains(later)
p1136
I00
sVcontains(to)
p1137
I01
sVcontains(off)
p1138
I00
sVcontains(good)
p1139
I00
sVcontains(over)
p1140
I01
sVcontains(hello)
p1141
I00
sVcontains(get)
p1142
I00
sVcontains(day)
p1143
I00
sVcontains(go)
p1144
I01
sVcontains(what)
p1145
I00
sVcontains(are)
p1146
I00
sVcontains(down)
p1147
I00
sVcontains(room)
p1148
I01
sVcontains('s)
p1149
I00
sVcontains(drop)
p1150
I00
sVcontains(hall)
p1151
I00
sS'go'
p1152
tp1153
a((dp1154
Vcontains(going)
p1155
I00
sVcontains('m)
p1156
I00
sVcontains(this)
p1157
I00
sVcontains(home)
p1158
I00
sVcontains(night)
p1159
I00
sVcontains(into)
p1160
I00
sVcontains(me)
p1161
I00
sVcontains(have)
p1162
I00
sVcontains(how)
p1163
I00
sVcontains(your)
p1164
I00
sVcontains(today)
p1165
I00
sVcontains(break)
p1166
I00
sVcontains(the)
p1167
I01
sVcontains(mail)
p1168
I00
sVcontains(morning)
p1169
I00
sVcontains(coffee)
p1170
I00
sVcontains(365)
p1171
I00
sVcontains(turtlebot)
p1172
I00
sVcontains(next)
p1173
I00
sVcontains(bring)
p1174
I00
sVcontains(deliver)
p1175
I00
sVcontains(paper)
p1176
I00
sVcontains(it)
p1177
I00
sVcontains(my)
p1178
I00
sVcontains(office)
p1179
I00
sVcontains(robot)
p1180
I00
sVcontains(is)
p1181
I00
sVcontains(a)
p1182
I00
sVcontains(you)
p1183
I00
sVcontains(cup)
p1184
I00
sVcontains(see)
p1185
I00
sVcontains(pencil)
p1186
I00
sVcontains(there)
p1187
I00
sVcontains(big)
p1188
I00
sVcontains(and)
p1189
I00
sVcontains(yes)
p1190
I00
sVcontains(up)
p1191
I00
sVcontains(door)
p1192
I00
sVcontains(boy)
p1193
I00
sVcontains(some)
p1194
I00
sVcontains(hey)
p1195
I00
sVcontains(i)
p1196
I00
sVcontains(hi)
p1197
I00
sVcontains(letter)
p1198
I00
sVcontains(of)
p1199
I00
sVcontains(later)
p1200
I00
sVcontains(to)
p1201
I00
sVcontains(off)
p1202
I00
sVcontains(good)
p1203
I00
sVcontains(over)
p1204
I00
sVcontains(hello)
p1205
I00
sVcontains(get)
p1206
I00
sVcontains(day)
p1207
I00
sVcontains(go)
p1208
I01
sVcontains(what)
p1209
I00
sVcontains(are)
p1210
I00
sVcontains(down)
p1211
I01
sVcontains(room)
p1212
I00
sVcontains('s)
p1213
I00
sVcontains(drop)
p1214
I00
sVcontains(hall)
p1215
I01
sg1152
tp1216
a((dp1217
Vcontains(going)
p1218
I00
sVcontains('m)
p1219
I00
sVcontains(this)
p1220
I00
sVcontains(home)
p1221
I00
sVcontains(night)
p1222
I00
sVcontains(into)
p1223
I01
sVcontains(me)
p1224
I00
sVcontains(have)
p1225
I00
sVcontains(how)
p1226
I00
sVcontains(your)
p1227
I00
sVcontains(today)
p1228
I00
sVcontains(break)
p1229
I00
sVcontains(the)
p1230
I01
sVcontains(mail)
p1231
I00
sVcontains(morning)
p1232
I00
sVcontains(coffee)
p1233
I00
sVcontains(365)
p1234
I00
sVcontains(turtlebot)
p1235
I00
sVcontains(next)
p1236
I01
sVcontains(bring)
p1237
I00
sVcontains(deliver)
p1238
I00
sVcontains(paper)
p1239
I00
sVcontains(it)
p1240
I00
sVcontains(my)
p1241
I00
sVcontains(office)
p1242
I00
sVcontains(robot)
p1243
I00
sVcontains(is)
p1244
I00
sVcontains(a)
p1245
I00
sVcontains(you)
p1246
I00
sVcontains(cup)
p1247
I00
sVcontains(see)
p1248
I00
sVcontains(pencil)
p1249
I00
sVcontains(there)
p1250
I00
sVcontains(big)
p1251
I00
sVcontains(and)
p1252
I00
sVcontains(yes)
p1253
I00
sVcontains(up)
p1254
I00
sVcontains(door)
p1255
I01
sVcontains(boy)
p1256
I00
sVcontains(some)
p1257
I00
sVcontains(hey)
p1258
I00
sVcontains(i)
p1259
I00
sVcontains(hi)
p1260
I00
sVcontains(letter)
p1261
I00
sVcontains(of)
p1262
I00
sVcontains(later)
p1263
I00
sVcontains(to)
p1264
I00
sVcontains(off)
p1265
I00
sVcontains(good)
p1266
I00
sVcontains(over)
p1267
I00
sVcontains(hello)
p1268
I00
sVcontains(get)
p1269
I00
sVcontains(day)
p1270
I00
sVcontains(go)
p1271
I01
sVcontains(what)
p1272
I00
sVcontains(are)
p1273
I00
sVcontains(down)
p1274
I00
sVcontains(room)
p1275
I01
sVcontains('s)
p1276
I00
sVcontains(drop)
p1277
I00
sVcontains(hall)
p1278
I00
sg1152
tp1279
a((dp1280
Vcontains(going)
p1281
I00
sVcontains('m)
p1282
I00
sVcontains(this)
p1283
I00
sVcontains(home)
p1284
I00
sVcontains(night)
p1285
I00
sVcontains(into)
p1286
I00
sVcontains(me)
p1287
I00
sVcontains(have)
p1288
I00
sVcontains(how)
p1289
I00
sVcontains(your)
p1290
I00
sVcontains(today)
p1291
I00
sVcontains(break)
p1292
I00
sVcontains(the)
p1293
I00
sVcontains(mail)
p1294
I00
sVcontains(morning)
p1295
I00
sVcontains(coffee)
p1296
I00
sVcontains(365)
p1297
I00
sVcontains(turtlebot)
p1298
I00
sVcontains(next)
p1299
I00
sVcontains(bring)
p1300
I00
sVcontains(deliver)
p1301
I00
sVcontains(paper)
p1302
I00
sVcontains(it)
p1303
I00
sVcontains(my)
p1304
I00
sVcontains(office)
p1305
I00
sVcontains(robot)
p1306
I01
sVcontains(is)
p1307
I00
sVcontains(a)
p1308
I00
sVcontains(you)
p1309
I00
sVcontains(cup)
p1310
I00
sVcontains(see)
p1311
I00
sVcontains(pencil)
p1312
I00
sVcontains(there)
p1313
I00
sVcontains(big)
p1314
I00
sVcontains(and)
p1315
I00
sVcontains(yes)
p1316
I00
sVcontains(up)
p1317
I00
sVcontains(door)
p1318
I00
sVcontains(boy)
p1319
I00
sVcontains(some)
p1320
I00
sVcontains(hey)
p1321
I00
sVcontains(i)
p1322
I00
sVcontains(hi)
p1323
I00
sVcontains(letter)
p1324
I00
sVcontains(of)
p1325
I00
sVcontains(later)
p1326
I00
sVcontains(to)
p1327
I00
sVcontains(off)
p1328
I00
sVcontains(good)
p1329
I00
sVcontains(over)
p1330
I00
sVcontains(hello)
p1331
I01
sVcontains(get)
p1332
I00
sVcontains(day)
p1333
I00
sVcontains(go)
p1334
I00
sVcontains(what)
p1335
I00
sVcontains(are)
p1336
I00
sVcontains(down)
p1337
I00
sVcontains(room)
p1338
I00
sVcontains('s)
p1339
I00
sVcontains(drop)
p1340
I00
sVcontains(hall)
p1341
I00
sg72
tp1342
a((dp1343
Vcontains(going)
p1344
I00
sVcontains('m)
p1345
I00
sVcontains(this)
p1346
I00
sVcontains(home)
p1347
I00
sVcontains(night)
p1348
I00
sVcontains(into)
p1349
I00
sVcontains(me)
p1350
I00
sVcontains(have)
p1351
I00
sVcontains(how)
p1352
I00
sVcontains(your)
p1353
I00
sVcontains(today)
p1354
I00
sVcontains(break)
p1355
I00
sVcontains(the)
p1356
I00
sVcontains(mail)
p1357
I00
sVcontains(morning)
p1358
I00
sVcontains(coffee)
p1359
I00
sVcontains(365)
p1360
I00
sVcontains(turtlebot)
p1361
I00
sVcontains(next)
p1362
I00
sVcontains(bring)
p1363
I00
sVcontains(deliver)
p1364
I00
sVcontains(paper)
p1365
I00
sVcontains(it)
p1366
I00
sVcontains(my)
p1367
I00
sVcontains(office)
p1368
I00
sVcontains(robot)
p1369
I01
sVcontains(is)
p1370
I00
sVcontains(a)
p1371
I00
sVcontains(you)
p1372
I00
sVcontains(cup)
p1373
I00
sVcontains(see)
p1374
I00
sVcontains(pencil)
p1375
I00
sVcontains(there)
p1376
I01
sVcontains(big)
p1377
I00
sVcontains(and)
p1378
I00
sVcontains(yes)
p1379
I00
sVcontains(up)
p1380
I00
sVcontains(door)
p1381
I00
sVcontains(boy)
p1382
I00
sVcontains(some)
p1383
I00
sVcontains(hey)
p1384
I00
sVcontains(i)
p1385
I00
sVcontains(hi)
p1386
I00
sVcontains(letter)
p1387
I00
sVcontains(of)
p1388
I00
sVcontains(later)
p1389
I00
sVcontains(to)
p1390
I00
sVcontains(off)
p1391
I00
sVcontains(good)
p1392
I00
sVcontains(over)
p1393
I00
sVcontains(hello)
p1394
I01
sVcontains(get)
p1395
I00
sVcontains(day)
p1396
I00
sVcontains(go)
p1397
I00
sVcontains(what)
p1398
I00
sVcontains(are)
p1399
I00
sVcontains(down)
p1400
I00
sVcontains(room)
p1401
I00
sVcontains('s)
p1402
I00
sVcontains(drop)
p1403
I00
sVcontains(hall)
p1404
I00
sg72
tp1405
a((dp1406
Vcontains(going)
p1407
I00
sVcontains('m)
p1408
I00
sVcontains(this)
p1409
I00
sVcontains(home)
p1410
I00
sVcontains(night)
p1411
I00
sVcontains(into)
p1412
I00
sVcontains(me)
p1413
I00
sVcontains(have)
p1414
I00
sVcontains(how)
p1415
I00
sVcontains(your)
p1416
I00
sVcontains(today)
p1417
I00
sVcontains(break)
p1418
I00
sVcontains(the)
p1419
I00
sVcontains(mail)
p1420
I00
sVcontains(morning)
p1421
I00
sVcontains(coffee)
p1422
I00
sVcontains(365)
p1423
I00
sVcontains(turtlebot)
p1424
I01
sVcontains(next)
p1425
I00
sVcontains(bring)
p1426
I00
sVcontains(deliver)
p1427
I00
sVcontains(paper)
p1428
I00
sVcontains(it)
p1429
I00
sVcontains(my)
p1430
I00
sVcontains(office)
p1431
I00
sVcontains(robot)
p1432
I00
sVcontains(is)
p1433
I00
sVcontains(a)
p1434
I00
sVcontains(you)
p1435
I00
sVcontains(cup)
p1436
I00
sVcontains(see)
p1437
I00
sVcontains(pencil)
p1438
I00
sVcontains(there)
p1439
I01
sVcontains(big)
p1440
I00
sVcontains(and)
p1441
I00
sVcontains(yes)
p1442
I00
sVcontains(up)
p1443
I00
sVcontains(door)
p1444
I00
sVcontains(boy)
p1445
I00
sVcontains(some)
p1446
I00
sVcontains(hey)
p1447
I00
sVcontains(i)
p1448
I00
sVcontains(hi)
p1449
I01
sVcontains(letter)
p1450
I00
sVcontains(of)
p1451
I00
sVcontains(later)
p1452
I00
sVcontains(to)
p1453
I00
sVcontains(off)
p1454
I00
sVcontains(good)
p1455
I00
sVcontains(over)
p1456
I00
sVcontains(hello)
p1457
I00
sVcontains(get)
p1458
I00
sVcontains(day)
p1459
I00
sVcontains(go)
p1460
I00
sVcontains(what)
p1461
I00
sVcontains(are)
p1462
I00
sVcontains(down)
p1463
I00
sVcontains(room)
p1464
I00
sVcontains('s)
p1465
I00
sVcontains(drop)
p1466
I00
sVcontains(hall)
p1467
I00
sg72
tp1468
a((dp1469
Vcontains(going)
p1470
I00
sVcontains('m)
p1471
I00
sVcontains(this)
p1472
I00
sVcontains(home)
p1473
I00
sVcontains(night)
p1474
I00
sVcontains(into)
p1475
I00
sVcontains(me)
p1476
I00
sVcontains(have)
p1477
I00
sVcontains(how)
p1478
I00
sVcontains(your)
p1479
I00
sVcontains(today)
p1480
I00
sVcontains(break)
p1481
I00
sVcontains(the)
p1482
I00
sVcontains(mail)
p1483
I00
sVcontains(morning)
p1484
I00
sVcontains(coffee)
p1485
I00
sVcontains(365)
p1486
I00
sVcontains(turtlebot)
p1487
I00
sVcontains(next)
p1488
I00
sVcontains(bring)
p1489
I00
sVcontains(deliver)
p1490
I00
sVcontains(paper)
p1491
I00
sVcontains(it)
p1492
I00
sVcontains(my)
p1493
I00
sVcontains(office)
p1494
I00
sVcontains(robot)
p1495
I01
sVcontains(is)
p1496
I00
sVcontains(a)
p1497
I00
sVcontains(you)
p1498
I00
sVcontains(cup)
p1499
I00
sVcontains(see)
p1500
I00
sVcontains(pencil)
p1501
I00
sVcontains(there)
p1502
I01
sVcontains(big)
p1503
I00
sVcontains(and)
p1504
I00
sVcontains(yes)
p1505
I00
sVcontains(up)
p1506
I00
sVcontains(door)
p1507
I00
sVcontains(boy)
p1508
I00
sVcontains(some)
p1509
I00
sVcontains(hey)
p1510
I00
sVcontains(i)
p1511
I00
sVcontains(hi)
p1512
I00
sVcontains(letter)
p1513
I00
sVcontains(of)
p1514
I00
sVcontains(later)
p1515
I00
sVcontains(to)
p1516
I00
sVcontains(off)
p1517
I00
sVcontains(good)
p1518
I00
sVcontains(over)
p1519
I00
sVcontains(hello)
p1520
I01
sVcontains(get)
p1521
I00
sVcontains(day)
p1522
I00
sVcontains(go)
p1523
I00
sVcontains(what)
p1524
I00
sVcontains(are)
p1525
I00
sVcontains(down)
p1526
I00
sVcontains(room)
p1527
I00
sVcontains('s)
p1528
I00
sVcontains(drop)
p1529
I00
sVcontains(hall)
p1530
I00
sg72
tp1531
a((dp1532
Vcontains(going)
p1533
I00
sVcontains('m)
p1534
I00
sVcontains(this)
p1535
I00
sVcontains(home)
p1536
I00
sVcontains(night)
p1537
I00
sVcontains(into)
p1538
I00
sVcontains(me)
p1539
I00
sVcontains(have)
p1540
I00
sVcontains(how)
p1541
I00
sVcontains(your)
p1542
I00
sVcontains(today)
p1543
I00
sVcontains(break)
p1544
I00
sVcontains(the)
p1545
I00
sVcontains(mail)
p1546
I00
sVcontains(morning)
p1547
I00
sVcontains(coffee)
p1548
I00
sVcontains(365)
p1549
I00
sVcontains(turtlebot)
p1550
I00
sVcontains(next)
p1551
I00
sVcontains(bring)
p1552
I00
sVcontains(deliver)
p1553
I00
sVcontains(paper)
p1554
I00
sVcontains(it)
p1555
I00
sVcontains(my)
p1556
I00
sVcontains(office)
p1557
I00
sVcontains(robot)
p1558
I01
sVcontains(is)
p1559
I00
sVcontains(a)
p1560
I00
sVcontains(you)
p1561
I00
sVcontains(cup)
p1562
I00
sVcontains(see)
p1563
I00
sVcontains(pencil)
p1564
I00
sVcontains(there)
p1565
I00
sVcontains(big)
p1566
I00
sVcontains(and)
p1567
I00
sVcontains(yes)
p1568
I00
sVcontains(up)
p1569
I00
sVcontains(door)
p1570
I00
sVcontains(boy)
p1571
I00
sVcontains(some)
p1572
I00
sVcontains(hey)
p1573
I00
sVcontains(i)
p1574
I00
sVcontains(hi)
p1575
I00
sVcontains(letter)
p1576
I00
sVcontains(of)
p1577
I00
sVcontains(later)
p1578
I00
sVcontains(to)
p1579
I00
sVcontains(off)
p1580
I00
sVcontains(good)
p1581
I00
sVcontains(over)
p1582
I00
sVcontains(hello)
p1583
I01
sVcontains(get)
p1584
I00
sVcontains(day)
p1585
I00
sVcontains(go)
p1586
I00
sVcontains(what)
p1587
I00
sVcontains(are)
p1588
I00
sVcontains(down)
p1589
I00
sVcontains(room)
p1590
I00
sVcontains('s)
p1591
I00
sVcontains(drop)
p1592
I00
sVcontains(hall)
p1593
I00
sg72
tp1594
a((dp1595
Vcontains(going)
p1596
I00
sVcontains('m)
p1597
I00
sVcontains(this)
p1598
I00
sVcontains(home)
p1599
I00
sVcontains(night)
p1600
I00
sVcontains(into)
p1601
I00
sVcontains(me)
p1602
I00
sVcontains(have)
p1603
I00
sVcontains(how)
p1604
I00
sVcontains(your)
p1605
I00
sVcontains(today)
p1606
I00
sVcontains(break)
p1607
I00
sVcontains(the)
p1608
I00
sVcontains(mail)
p1609
I00
sVcontains(morning)
p1610
I00
sVcontains(coffee)
p1611
I00
sVcontains(365)
p1612
I00
sVcontains(turtlebot)
p1613
I00
sVcontains(next)
p1614
I00
sVcontains(bring)
p1615
I00
sVcontains(deliver)
p1616
I00
sVcontains(paper)
p1617
I00
sVcontains(it)
p1618
I00
sVcontains(my)
p1619
I00
sVcontains(office)
p1620
I00
sVcontains(robot)
p1621
I01
sVcontains(is)
p1622
I00
sVcontains(a)
p1623
I00
sVcontains(you)
p1624
I00
sVcontains(cup)
p1625
I00
sVcontains(see)
p1626
I00
sVcontains(pencil)
p1627
I00
sVcontains(there)
p1628
I00
sVcontains(big)
p1629
I00
sVcontains(and)
p1630
I00
sVcontains(yes)
p1631
I00
sVcontains(up)
p1632
I00
sVcontains(door)
p1633
I00
sVcontains(boy)
p1634
I00
sVcontains(some)
p1635
I00
sVcontains(hey)
p1636
I00
sVcontains(i)
p1637
I00
sVcontains(hi)
p1638
I00
sVcontains(letter)
p1639
I00
sVcontains(of)
p1640
I00
sVcontains(later)
p1641
I00
sVcontains(to)
p1642
I00
sVcontains(off)
p1643
I00
sVcontains(good)
p1644
I00
sVcontains(over)
p1645
I00
sVcontains(hello)
p1646
I01
sVcontains(get)
p1647
I00
sVcontains(day)
p1648
I00
sVcontains(go)
p1649
I00
sVcontains(what)
p1650
I00
sVcontains(are)
p1651
I00
sVcontains(down)
p1652
I00
sVcontains(room)
p1653
I00
sVcontains('s)
p1654
I00
sVcontains(drop)
p1655
I00
sVcontains(hall)
p1656
I00
sg72
tp1657
a((dp1658
Vcontains(going)
p1659
I01
sVcontains('m)
p1660
I00
sVcontains(this)
p1661
I00
sVcontains(home)
p1662
I00
sVcontains(night)
p1663
I00
sVcontains(into)
p1664
I00
sVcontains(me)
p1665
I00
sVcontains(have)
p1666
I00
sVcontains(how)
p1667
I01
sVcontains(your)
p1668
I00
sVcontains(today)
p1669
I01
sVcontains(break)
p1670
I00
sVcontains(the)
p1671
I00
sVcontains(mail)
p1672
I00
sVcontains(morning)
p1673
I00
sVcontains(coffee)
p1674
I00
sVcontains(365)
p1675
I00
sVcontains(turtlebot)
p1676
I00
sVcontains(next)
p1677
I00
sVcontains(bring)
p1678
I00
sVcontains(deliver)
p1679
I00
sVcontains(paper)
p1680
I00
sVcontains(it)
p1681
I01
sVcontains(my)
p1682
I00
sVcontains(office)
p1683
I00
sVcontains(robot)
p1684
I01
sVcontains(is)
p1685
I00
sVcontains(a)
p1686
I00
sVcontains(you)
p1687
I00
sVcontains(cup)
p1688
I00
sVcontains(see)
p1689
I00
sVcontains(pencil)
p1690
I00
sVcontains(there)
p1691
I01
sVcontains(big)
p1692
I00
sVcontains(and)
p1693
I00
sVcontains(yes)
p1694
I00
sVcontains(up)
p1695
I00
sVcontains(door)
p1696
I00
sVcontains(boy)
p1697
I00
sVcontains(some)
p1698
I00
sVcontains(hey)
p1699
I01
sVcontains(i)
p1700
I00
sVcontains(hi)
p1701
I00
sVcontains(letter)
p1702
I00
sVcontains(of)
p1703
I00
sVcontains(later)
p1704
I00
sVcontains(to)
p1705
I00
sVcontains(off)
p1706
I00
sVcontains(good)
p1707
I00
sVcontains(over)
p1708
I00
sVcontains(hello)
p1709
I00
sVcontains(get)
p1710
I00
sVcontains(day)
p1711
I00
sVcontains(go)
p1712
I00
sVcontains(what)
p1713
I00
sVcontains(are)
p1714
I00
sVcontains(down)
p1715
I00
sVcontains(room)
p1716
I00
sVcontains('s)
p1717
I00
sVcontains(drop)
p1718
I00
sVcontains(hall)
p1719
I00
sg72
tp1720
a((dp1721
Vcontains(going)
p1722
I00
sVcontains('m)
p1723
I00
sVcontains(this)
p1724
I00
sVcontains(home)
p1725
I00
sVcontains(night)
p1726
I00
sVcontains(into)
p1727
I00
sVcontains(me)
p1728
I00
sVcontains(have)
p1729
I00
sVcontains(how)
p1730
I00
sVcontains(your)
p1731
I00
sVcontains(today)
p1732
I00
sVcontains(break)
p1733
I00
sVcontains(the)
p1734
I00
sVcontains(mail)
p1735
I00
sVcontains(morning)
p1736
I00
sVcontains(coffee)
p1737
I00
sVcontains(365)
p1738
I00
sVcontains(turtlebot)
p1739
I01
sVcontains(next)
p1740
I00
sVcontains(bring)
p1741
I00
sVcontains(deliver)
p1742
I00
sVcontains(paper)
p1743
I00
sVcontains(it)
p1744
I00
sVcontains(my)
p1745
I00
sVcontains(office)
p1746
I00
sVcontains(robot)
p1747
I00
sVcontains(is)
p1748
I00
sVcontains(a)
p1749
I00
sVcontains(you)
p1750
I00
sVcontains(cup)
p1751
I00
sVcontains(see)
p1752
I00
sVcontains(pencil)
p1753
I00
sVcontains(there)
p1754
I01
sVcontains(big)
p1755
I00
sVcontains(and)
p1756
I00
sVcontains(yes)
p1757
I00
sVcontains(up)
p1758
I00
sVcontains(door)
p1759
I00
sVcontains(boy)
p1760
I00
sVcontains(some)
p1761
I00
sVcontains(hey)
p1762
I00
sVcontains(i)
p1763
I00
sVcontains(hi)
p1764
I00
sVcontains(letter)
p1765
I00
sVcontains(of)
p1766
I00
sVcontains(later)
p1767
I00
sVcontains(to)
p1768
I00
sVcontains(off)
p1769
I00
sVcontains(good)
p1770
I00
sVcontains(over)
p1771
I00
sVcontains(hello)
p1772
I01
sVcontains(get)
p1773
I00
sVcontains(day)
p1774
I00
sVcontains(go)
p1775
I00
sVcontains(what)
p1776
I00
sVcontains(are)
p1777
I00
sVcontains(down)
p1778
I00
sVcontains(room)
p1779
I00
sVcontains('s)
p1780
I00
sVcontains(drop)
p1781
I00
sVcontains(hall)
p1782
I00
sg72
tp1783
a((dp1784
Vcontains(going)
p1785
I00
sVcontains('m)
p1786
I00
sVcontains(this)
p1787
I00
sVcontains(home)
p1788
I00
sVcontains(night)
p1789
I00
sVcontains(into)
p1790
I00
sVcontains(me)
p1791
I00
sVcontains(have)
p1792
I00
sVcontains(how)
p1793
I00
sVcontains(your)
p1794
I00
sVcontains(today)
p1795
I00
sVcontains(break)
p1796
I00
sVcontains(the)
p1797
I00
sVcontains(mail)
p1798
I00
sVcontains(morning)
p1799
I00
sVcontains(coffee)
p1800
I00
sVcontains(365)
p1801
I00
sVcontains(turtlebot)
p1802
I00
sVcontains(next)
p1803
I00
sVcontains(bring)
p1804
I00
sVcontains(deliver)
p1805
I00
sVcontains(paper)
p1806
I00
sVcontains(it)
p1807
I00
sVcontains(my)
p1808
I00
sVcontains(office)
p1809
I00
sVcontains(robot)
p1810
I01
sVcontains(is)
p1811
I00
sVcontains(a)
p1812
I00
sVcontains(you)
p1813
I00
sVcontains(cup)
p1814
I00
sVcontains(see)
p1815
I00
sVcontains(pencil)
p1816
I00
sVcontains(there)
p1817
I00
sVcontains(big)
p1818
I00
sVcontains(and)
p1819
I00
sVcontains(yes)
p1820
I00
sVcontains(up)
p1821
I00
sVcontains(door)
p1822
I00
sVcontains(boy)
p1823
I00
sVcontains(some)
p1824
I00
sVcontains(hey)
p1825
I00
sVcontains(i)
p1826
I00
sVcontains(hi)
p1827
I00
sVcontains(letter)
p1828
I00
sVcontains(of)
p1829
I00
sVcontains(later)
p1830
I00
sVcontains(to)
p1831
I00
sVcontains(off)
p1832
I00
sVcontains(good)
p1833
I00
sVcontains(over)
p1834
I00
sVcontains(hello)
p1835
I01
sVcontains(get)
p1836
I00
sVcontains(day)
p1837
I00
sVcontains(go)
p1838
I00
sVcontains(what)
p1839
I00
sVcontains(are)
p1840
I00
sVcontains(down)
p1841
I00
sVcontains(room)
p1842
I00
sVcontains('s)
p1843
I00
sVcontains(drop)
p1844
I00
sVcontains(hall)
p1845
I00
sg72
tp1846
a((dp1847
Vcontains(going)
p1848
I00
sVcontains('m)
p1849
I00
sVcontains(this)
p1850
I00
sVcontains(home)
p1851
I00
sVcontains(night)
p1852
I00
sVcontains(into)
p1853
I00
sVcontains(me)
p1854
I00
sVcontains(have)
p1855
I00
sVcontains(how)
p1856
I00
sVcontains(your)
p1857
I00
sVcontains(today)
p1858
I00
sVcontains(break)
p1859
I00
sVcontains(the)
p1860
I00
sVcontains(mail)
p1861
I00
sVcontains(morning)
p1862
I00
sVcontains(coffee)
p1863
I00
sVcontains(365)
p1864
I00
sVcontains(turtlebot)
p1865
I00
sVcontains(next)
p1866
I00
sVcontains(bring)
p1867
I00
sVcontains(deliver)
p1868
I00
sVcontains(paper)
p1869
I00
sVcontains(it)
p1870
I00
sVcontains(my)
p1871
I00
sVcontains(office)
p1872
I00
sVcontains(robot)
p1873
I01
sVcontains(is)
p1874
I00
sVcontains(a)
p1875
I00
sVcontains(you)
p1876
I00
sVcontains(cup)
p1877
I00
sVcontains(see)
p1878
I00
sVcontains(pencil)
p1879
I00
sVcontains(there)
p1880
I00
sVcontains(big)
p1881
I00
sVcontains(and)
p1882
I00
sVcontains(yes)
p1883
I00
sVcontains(up)
p1884
I00
sVcontains(door)
p1885
I00
sVcontains(boy)
p1886
I00
sVcontains(some)
p1887
I00
sVcontains(hey)
p1888
I00
sVcontains(i)
p1889
I00
sVcontains(hi)
p1890
I00
sVcontains(letter)
p1891
I00
sVcontains(of)
p1892
I00
sVcontains(later)
p1893
I00
sVcontains(to)
p1894
I00
sVcontains(off)
p1895
I00
sVcontains(good)
p1896
I00
sVcontains(over)
p1897
I00
sVcontains(hello)
p1898
I01
sVcontains(get)
p1899
I00
sVcontains(day)
p1900
I00
sVcontains(go)
p1901
I00
sVcontains(what)
p1902
I00
sVcontains(are)
p1903
I00
sVcontains(down)
p1904
I00
sVcontains(room)
p1905
I00
sVcontains('s)
p1906
I00
sVcontains(drop)
p1907
I00
sVcontains(hall)
p1908
I00
sg72
tp1909
a((dp1910
Vcontains(going)
p1911
I00
sVcontains('m)
p1912
I00
sVcontains(this)
p1913
I00
sVcontains(home)
p1914
I00
sVcontains(night)
p1915
I00
sVcontains(into)
p1916
I00
sVcontains(me)
p1917
I00
sVcontains(have)
p1918
I00
sVcontains(how)
p1919
I00
sVcontains(your)
p1920
I00
sVcontains(today)
p1921
I00
sVcontains(break)
p1922
I00
sVcontains(the)
p1923
I00
sVcontains(mail)
p1924
I00
sVcontains(morning)
p1925
I00
sVcontains(coffee)
p1926
I00
sVcontains(365)
p1927
I00
sVcontains(turtlebot)
p1928
I00
sVcontains(next)
p1929
I00
sVcontains(bring)
p1930
I00
sVcontains(deliver)
p1931
I00
sVcontains(paper)
p1932
I00
sVcontains(it)
p1933
I00
sVcontains(my)
p1934
I00
sVcontains(office)
p1935
I00
sVcontains(robot)
p1936
I00
sVcontains(is)
p1937
I00
sVcontains(a)
p1938
I00
sVcontains(you)
p1939
I00
sVcontains(cup)
p1940
I00
sVcontains(see)
p1941
I00
sVcontains(pencil)
p1942
I00
sVcontains(there)
p1943
I01
sVcontains(big)
p1944
I01
sVcontains(and)
p1945
I00
sVcontains(yes)
p1946
I00
sVcontains(up)
p1947
I00
sVcontains(door)
p1948
I00
sVcontains(boy)
p1949
I01
sVcontains(some)
p1950
I00
sVcontains(hey)
p1951
I01
sVcontains(i)
p1952
I00
sVcontains(hi)
p1953
I00
sVcontains(letter)
p1954
I00
sVcontains(of)
p1955
I00
sVcontains(later)
p1956
I00
sVcontains(to)
p1957
I00
sVcontains(off)
p1958
I00
sVcontains(good)
p1959
I00
sVcontains(over)
p1960
I00
sVcontains(hello)
p1961
I00
sVcontains(get)
p1962
I00
sVcontains(day)
p1963
I00
sVcontains(go)
p1964
I00
sVcontains(what)
p1965
I00
sVcontains(are)
p1966
I00
sVcontains(down)
p1967
I00
sVcontains(room)
p1968
I00
sVcontains('s)
p1969
I00
sVcontains(drop)
p1970
I00
sVcontains(hall)
p1971
I00
sg72
tp1972
a((dp1973
Vcontains(going)
p1974
I00
sVcontains('m)
p1975
I00
sVcontains(this)
p1976
I00
sVcontains(home)
p1977
I00
sVcontains(night)
p1978
I00
sVcontains(into)
p1979
I00
sVcontains(me)
p1980
I00
sVcontains(have)
p1981
I00
sVcontains(how)
p1982
I00
sVcontains(your)
p1983
I00
sVcontains(today)
p1984
I00
sVcontains(break)
p1985
I00
sVcontains(the)
p1986
I00
sVcontains(mail)
p1987
I00
sVcontains(morning)
p1988
I00
sVcontains(coffee)
p1989
I00
sVcontains(365)
p1990
I00
sVcontains(turtlebot)
p1991
I00
sVcontains(next)
p1992
I00
sVcontains(bring)
p1993
I00
sVcontains(deliver)
p1994
I00
sVcontains(paper)
p1995
I00
sVcontains(it)
p1996
I00
sVcontains(my)
p1997
I00
sVcontains(office)
p1998
I00
sVcontains(robot)
p1999
I00
sVcontains(is)
p2000
I00
sVcontains(a)
p2001
I00
sVcontains(you)
p2002
I00
sVcontains(cup)
p2003
I00
sVcontains(see)
p2004
I00
sVcontains(pencil)
p2005
I00
sVcontains(there)
p2006
I00
sVcontains(big)
p2007
I00
sVcontains(and)
p2008
I00
sVcontains(yes)
p2009
I01
sVcontains(up)
p2010
I00
sVcontains(door)
p2011
I00
sVcontains(boy)
p2012
I00
sVcontains(some)
p2013
I00
sVcontains(hey)
p2014
I00
sVcontains(i)
p2015
I00
sVcontains(hi)
p2016
I00
sVcontains(letter)
p2017
I00
sVcontains(of)
p2018
I00
sVcontains(later)
p2019
I00
sVcontains(to)
p2020
I00
sVcontains(off)
p2021
I00
sVcontains(good)
p2022
I00
sVcontains(over)
p2023
I00
sVcontains(hello)
p2024
I00
sVcontains(get)
p2025
I00
sVcontains(day)
p2026
I00
sVcontains(go)
p2027
I00
sVcontains(what)
p2028
I00
sVcontains(are)
p2029
I00
sVcontains(down)
p2030
I00
sVcontains(room)
p2031
I00
sVcontains('s)
p2032
I00
sVcontains(drop)
p2033
I00
sVcontains(hall)
p2034
I00
sg72
tp2035
asS'train_set'
p2036
(lp2037
(S'hello how are you today'
g72
tp2038
a(S"what's up"
g72
tp2039
a(S"how's it going?"
g72
tp2040
a(S'hey how is your day'
g72
tp2041
a(S'good morning'
g72
tp2042
a(S'good night'
g388
tp2043
a(S"i'm going home"
g452
tp2044
a(S'have a good day'
g516
tp2045
a(S'see you later'
g580
tp2046
a(S'go and get me some coffee'
g644
tp2047
a(S'go and get me a pencil'
g708
tp2048
a(S'go to the break room and get my coffee'
g772
tp2049
a(S'go down the hall and deliver this to the mail room'
g836
tp2050
a(S'go to my office and drop off this paper'
g836
tp2051
a(S'bring this cup of coffee down the hall to my office'
g836
tp2052
a(S'bring this letter to the mail room down the hall'
g836
tp2053
a(S'deliver this letter to room 365'
g836
tp2054
a(S'go over to the break room'
g1152
tp2055
a(S'go down the hall'
g1152
tp2056
a(S'go into the room next door'
g1152
tp2057
a(S'hello robot'
g72
tp2058
a(S'hello there robot'
g72
tp2059
a(S'hi there turtlebot'
g72
tp2060
a(S'hello there robot'
g72
tp2061
a(S'hello robot'
g72
tp2062
a(S'hello robot'
g72
tp2063
a(S"hey there robot how's it going today?"
g72
tp2064
a(S'hello there turtlebot'
g72
tp2065
a(S'hello robot'
g72
tp2066
a(S'hello robot'
g72
tp2067
a(S'hey there big boy'
g72
tp2068
a(S'yes'
p2069
g72
tp2070
asS'feature_extractor'
p2071
ctextblob.classifiers
basic_extractor
p2072
sS'classifier'
p2073
g1
(cnltk.classify.naivebayes
NaiveBayesClassifier
p2074
g3
NtRp2075
(dp2076
S'_labels'
p2077
(lp2078
g1152
ag836
ag388
ag72
ag644
asS'_feature_probdist'
p2079
(dp2080
(g388
g336
tp2081
g1
(cnltk.probability
ELEProbDist
p2082
g3
NtRp2083
(dp2084
S'_gamma'
p2085
F0.5
sS'_N'
p2086
I4
sS'_freqdist'
p2087
cnltk.probability
FreqDist
p2088
((dp2089
I00
I4
stRp2090
sS'_bins'
p2091
I2
sS'_divisor'
p2092
F5
sbs(g72
g19
tp2093
g1
(g2082
g3
NtRp2094
(dp2095
g2085
F0.5
sg2086
I17
sg2087
g2088
((dp2096
I00
I13
sI01
I4
stRp2097
sg2091
I2
sg2092
F18
sbs(g836
g780
tp2098
g1
(g2082
g3
NtRp2099
(dp2100
g2085
F0.5
sg2086
I5
sg2087
g2088
((dp2101
I00
I5
stRp2102
sg2091
I2
sg2092
F6
sbs(g836
g788
tp2103
g1
(g2082
g3
NtRp2104
(dp2105
g2085
F0.5
sg2086
I5
sg2087
g2088
((dp2106
I00
I3
sI01
I2
stRp2107
sg2091
I2
sg2092
F6
sbs(g72
g55
tp2108
g1
(g2082
g3
NtRp2109
(dp2110
g2085
F0.5
sg2086
I17
sg2087
g2088
((dp2111
I00
I17
stRp2112
sg2091
I2
sg2092
F18
sbs(g1152
g1105
tp2113
g1
(g2082
g3
NtRp2114
(dp2115
g2085
F0.5
sg2086
I3
sg2087
g2088
((dp2116
I00
I3
stRp2117
sg2091
I2
sg2092
F4
sbs(g836
g790
tp2118
g1
(g2082
g3
NtRp2119
(dp2120
g2085
F0.5
sg2086
I5
sg2087
g2088
((dp2121
I00
I4
sI01
I1
stRp2122
sg2091
I2
sg2092
F6
sbs(g1152
g1124
tp2123
g1
(g2082
g3
NtRp2124
(dp2125
g2085
F0.5
sg2086
I3
sg2087
g2088
((dp2126
I00
I3
stRp2127
sg2091
I2
sg2092
F4
sbs(g836
g782
tp2128
g1
(g2082
g3
NtRp2129
(dp2130
g2085
F0.5
sg2086
I5
sg2087
g2088
((dp2131
I00
I5
stRp2132
sg2091
I2
sg2092
F6
sbs(g836
g822
tp2133
g1
(g2082
g3
NtRp2134
(dp2135
g2085
F0.5
sg2086
I5
sg2087
g2088
((dp2136
I00
I4
sI01
I1
stRp2137
sg2091
I2
sg2092
F6
sbs(g72
g46
tp2138
g1
(g2082
g3
NtRp2139
(dp2140
g2085
F0.5
sg2086
I17
sg2087
g2088
((dp2141
I00
I16
sI01
I1
stRp2142
sg2091
I2
sg2092
F18
sbs(g836
g783
tp2143
g1
(g2082
g3
NtRp2144
(dp2145
g2085
F0.5
sg2086
I5
sg2087
g2088
((dp2146
I00
I5
stRp2147
sg2091
I2
sg2092
F6
sbs(g388
g344
tp2148
g1
(g2082
g3
NtRp2149
(dp2150
g2085
F0.5
sg2086
I4
sg2087
g2088
((dp2151
I00
I4
stRp2152
sg2091
I2
sg2092
F5
sbs(g388
g375
tp2153
g1
(g2082
g3
NtRp2154
(dp2155
g2085
F0.5
sg2086
I4
sg2087
g2088
((dp2156
I00
I2
sI01
I2
stRp2157
sg2091
I2
sg2092
F5
sbs(g1152
g1122
tp2158
g1
(g2082
g3
NtRp2159
(dp2160
g2085
F0.5
sg2086
I3
sg2087
g2088
((dp2161
I00
I3
stRp2162
sg2091
I2
sg2092
F4
sbs(g388
g354
tp2163
g1
(g2082
g3
NtRp2164
(dp2165
g2085
F0.5
sg2086
I4
sg2087
g2088
((dp2166
I00
I3
sI01
I1
stRp2167
sg2091
I2
sg2092
F5
sbs(g644
g589
tp2168
g1
(g2082
g3
NtRp2169
(dp2170
g2085
F0.5
sg2086
I3
sg2087
g2088
((dp2171
I00
I1
sI01
I2
stRp2172
sg2091
I2
sg2092
F4
sbs(g644
g609
tp2173
g1
(g2082
g3
NtRp2174
(dp2175
g2085
F0.5
sg2086
I3
sg2087
g2088
((dp2176
I00
I3
stRp2177
sg2091
I2
sg2092
F4
sbs(g836
g801
tp2178
g1
(g2082
g3
NtRp2179
(dp2180
g2085
F0.5
sg2086
I5
sg2087
g2088
((dp2181
I00
I5
stRp2182
sg2091
I2
sg2092
F6
sbs(g72
g13
tp2183
g1
(g2082
g3
NtRp2184
(dp2185
g2085
F0.5
sg2086
I17
sg2087
g2088
((dp2186
I00
I17
stRp2187
sg2091
I2
sg2092
F18
sbs(g836
g820
tp2188
g1
(g2082
g3
NtRp2189
(dp2190
g2085
F0.5
sg2086
I5
sg2087
g2088
((dp2191
I00
I5
stRp2192
sg2091
I2
sg2092
F6
sbs(g1152
g1098
tp2193
g1
(g2082
g3
NtRp2194
(dp2195
g2085
F0.5
sg2086
I3
sg2087
g2088
((dp2196
I00
I3
stRp2197
sg2091
I2
sg2092
F4
sbs(g388
g357
tp2198
g1
(g2082
g3
NtRp2199
(dp2200
g2085
F0.5
sg2086
I4
sg2087
g2088
((dp2201
I00
I3
sI01
I1
stRp2202
sg2091
I2
sg2092
F5
sbs(g836
g785
tp2203
g1
(g2082
g3
NtRp2204
(dp2205
g2085
F0.5
sg2086
I5
sg2087
g2088
((dp2206
I00
I5
stRp2207
sg2091
I2
sg2092
F6
sbs(g644
g583
tp2208
g1
(g2082
g3
NtRp2209
(dp2210
g2085
F0.5
sg2086
I3
sg2087
g2088
((dp2211
I00
I3
stRp2212
sg2091
I2
sg2092
F4
sbs(g836
g796
tp2213
g1
(g2082
g3
NtRp2214
(dp2215
g2085
F0.5
sg2086
I5
sg2087
g2088
((dp2216
I00
I4
sI01
I1
stRp2217
sg2091
I2
sg2092
F6
sbs(g72
g25
tp2218
g1
(g2082
g3
NtRp2219
(dp2220
g2085
F0.5
sg2086
I17
sg2087
g2088
((dp2221
I00
I16
sI01
I1
stRp2222
sg2091
I2
sg2092
F18
sbs(g836
g832
tp2223
g1
(g2082
g3
NtRp2224
(dp2225
g2085
F0.5
sg2086
I5
sg2087
g2088
((dp2226
I00
I2
sI01
I3
stRp2227
sg2091
I2
sg2092
F6
sbs(g72
g57
tp2228
g1
(g2082
g3
NtRp2229
(dp2230
g2085
F0.5
sg2086
I17
sg2087
g2088
((dp2231
I00
I17
stRp2232
sg2091
I2
sg2092
F18
sbs(g644
g619
tp2233
g1
(g2082
g3
NtRp2234
(dp2235
g2085
F0.5
sg2086
I3
sg2087
g2088
((dp2236
I00
I3
stRp2237
sg2091
I2
sg2092
F4
sbs(g1152
g1111
tp2238
g1
(g2082
g3
NtRp2239
(dp2240
g2085
F0.5
sg2086
I3
sg2087
g2088
((dp2241
I00
I3
stRp2242
sg2091
I2
sg2092
F4
sbs(g72
g45
tp2243
g1
(g2082
g3
NtRp2244
(dp2245
g2085
F0.5
sg2086
I17
sg2087
g2088
((dp2246
I00
I17
stRp2247
sg2091
I2
sg2092
F18
sbs(g644
g613
tp2248
g1
(g2082
g3
NtRp2249
(dp2250
g2085
F0.5
sg2086
I3
sg2087
g2088
((dp2251
I00
I3
stRp2252
sg2091
I2
sg2092
F4
sbs(g836
g805
tp2253
g1
(g2082
g3
NtRp2254
(dp2255
g2085
F0.5
sg2086
I5
sg2087
g2088
((dp2256
I00
I5
stRp2257
sg2091
I2
sg2092
F6
sbs(g836
g784
tp2258
g1
(g2082
g3
NtRp2259
(dp2260
g2085
F0.5
sg2086
I5
sg2087
g2088
((dp2261
I00
I5
stRp2262
sg2091
I2
sg2092
F6
sbs(g72
g36
tp2263
g1
(g2082
g3
NtRp2264
(dp2265
g2085
F0.5
sg2086
I17
sg2087
g2088
((dp2266
I00
I9
sI01
I8
stRp2267
sg2091
I2
sg2092
F18
sbs(g388
g387
tp2268
g1
(g2082
g3
NtRp2269
(dp2270
g2085
F0.5
sg2086
I4
sg2087
g2088
((dp2271
I00
I4
stRp2272
sg2091
I2
sg2092
F5
sbs(g388
g349
tp2273
g1
(g2082
g3
NtRp2274
(dp2275
g2085
F0.5
sg2086
I4
sg2087
g2088
((dp2276
I00
I4
stRp2277
sg2091
I2
sg2092
F5
sbs(g644
g634
tp2278
g1
(g2082
g3
NtRp2279
(dp2280
g2085
F0.5
sg2086
I3
sg2087
g2088
((dp2281
I01
I3
stRp2282
sg2091
I2
sg2092
F4
sbs(g388
g345
tp2283
g1
(g2082
g3
NtRp2284
(dp2285
g2085
F0.5
sg2086
I4
sg2087
g2088
((dp2286
I00
I4
stRp2287
sg2091
I2
sg2092
F5
sbs(g72
g11
tp2288
g1
(g2082
g3
NtRp2289
(dp2290
g2085
F0.5
sg2086
I17
sg2087
g2088
((dp2291
I00
I15
sI01
I2
stRp2292
sg2091
I2
sg2092
F18
sbs(g1152
g1148
tp2293
g1
(g2082
g3
NtRp2294
(dp2295
g2085
F0.5
sg2086
I3
sg2087
g2088
((dp2296
I00
I1
sI01
I2
stRp2297
sg2091
I2
sg2092
F4
sbs(g72
g14
tp2298
g1
(g2082
g3
NtRp2299
(dp2300
g2085
F0.5
sg2086
I17
sg2087
g2088
((dp2301
I00
I17
stRp2302
sg2091
I2
sg2092
F18
sbs(g72
g16
tp2303
g1
(g2082
g3
NtRp2304
(dp2305
g2085
F0.5
sg2086
I17
sg2087
g2088
((dp2306
I00
I17
stRp2307
sg2091
I2
sg2092
F18
sbs(g72
g58
tp2308
g1
(g2082
g3
NtRp2309
(dp2310
g2085
F0.5
sg2086
I17
sg2087
g2088
((dp2311
I00
I17
stRp2312
sg2091
I2
sg2092
F18
sbs(g72
g66
tp2313
g1
(g2082
g3
NtRp2314
(dp2315
g2085
F0.5
sg2086
I17
sg2087
g2088
((dp2316
I00
I16
sI01
I1
stRp2317
sg2091
I2
sg2092
F18
sbs(g644
g618
tp2318
g1
(g2082
g3
NtRp2319
(dp2320
g2085
F0.5
sg2086
I3
sg2087
g2088
((dp2321
I00
I3
stRp2322
sg2091
I2
sg2092
F4
sbs(g1152
g1101
tp2323
g1
(g2082
g3
NtRp2324
(dp2325
g2085
F0.5
sg2086
I3
sg2087
g2088
((dp2326
I00
I3
stRp2327
sg2091
I2
sg2092
F4
sbs(g836
g810
tp2328
g1
(g2082
g3
NtRp2329
(dp2330
g2085
F0.5
sg2086
I5
sg2087
g2088
((dp2331
I00
I5
stRp2332
sg2091
I2
sg2092
F6
sbs(g644
g612
tp2333
g1
(g2082
g3
NtRp2334
(dp2335
g2085
F0.5
sg2086
I3
sg2087
g2088
((dp2336
I00
I3
stRp2337
sg2091
I2
sg2092
F4
sbs(g1152
g1108
tp2338
g1
(g2082
g3
NtRp2339
(dp2340
g2085
F0.5
sg2086
I3
sg2087
g2088
((dp2341
I00
I3
stRp2342
sg2091
I2
sg2092
F4
sbs(g72
g18
tp2343
g1
(g2082
g3
NtRp2344
(dp2345
g2085
F0.5
sg2086
I17
sg2087
g2088
((dp2346
I00
I17
stRp2347
sg2091
I2
sg2092
F18
sbs(g836
g799
tp2348
g1
(g2082
g3
NtRp2349
(dp2350
g2085
F0.5
sg2086
I5
sg2087
g2088
((dp2351
I00
I3
sI01
I2
stRp2352
sg2091
I2
sg2092
F6
sbs(g72
g17
tp2353
g1
(g2082
g3
NtRp2354
(dp2355
g2085
F0.5
sg2086
I17
sg2087
g2088
((dp2356
I00
I17
stRp2357
sg2091
I2
sg2092
F18
sbs(g644
g599
tp2358
g1
(g2082
g3
NtRp2359
(dp2360
g2085
F0.5
sg2086
I3
sg2087
g2088
((dp2361
I00
I3
stRp2362
sg2091
I2
sg2092
F4
sbs(g388
g360
tp2363
g1
(g2082
g3
NtRp2364
(dp2365
g2085
F0.5
sg2086
I4
sg2087
g2088
((dp2366
I00
I4
stRp2367
sg2091
I2
sg2092
F5
sbs(g72
g42
tp2368
g1
(g2082
g3
NtRp2369
(dp2370
g2085
F0.5
sg2086
I17
sg2087
g2088
((dp2371
I00
I17
stRp2372
sg2091
I2
sg2092
F18
sbs(g388
g380
tp2373
g1
(g2082
g3
NtRp2374
(dp2375
g2085
F0.5
sg2086
I4
sg2087
g2088
((dp2376
I00
I4
stRp2377
sg2091
I2
sg2092
F5
sbs(g72
g15
tp2378
g1
(g2082
g3
NtRp2379
(dp2380
g2085
F0.5
sg2086
I17
sg2087
g2088
((dp2381
I00
I17
stRp2382
sg2091
I2
sg2092
F18
sbs(g836
g821
tp2383
g1
(g2082
g3
NtRp2384
(dp2385
g2085
F0.5
sg2086
I5
sg2087
g2088
((dp2386
I01
I5
stRp2387
sg2091
I2
sg2092
F6
sbs(g388
g339
tp2388
g1
(g2082
g3
NtRp2389
(dp2390
g2085
F0.5
sg2086
I4
sg2087
g2088
((dp2391
I00
I4
stRp2392
sg2091
I2
sg2092
F5
sbs(g836
g825
tp2393
g1
(g2082
g3
NtRp2394
(dp2395
g2085
F0.5
sg2086
I5
sg2087
g2088
((dp2396
I00
I5
stRp2397
sg2091
I2
sg2092
F6
sbs(g644
g615
tp2398
g1
(g2082
g3
NtRp2399
(dp2400
g2085
F0.5
sg2086
I3
sg2087
g2088
((dp2401
I00
I3
stRp2402
sg2091
I2
sg2092
F4
sbs(g72
g21
tp2403
g1
(g2082
g3
NtRp2404
(dp2405
g2085
F0.5
sg2086
I17
sg2087
g2088
((dp2406
I00
I15
sI01
I2
stRp2407
sg2091
I2
sg2092
F18
sbs(g72
g33
tp2408
g1
(g2082
g3
NtRp2409
(dp2410
g2085
F0.5
sg2086
I17
sg2087
g2088
((dp2411
I00
I15
sI01
I2
stRp2412
sg2091
I2
sg2092
F18
sbs(g644
g610
tp2413
g1
(g2082
g3
NtRp2414
(dp2415
g2085
F0.5
sg2086
I3
sg2087
g2088
((dp2416
I00
I2
sI01
I1
stRp2417
sg2091
I2
sg2092
F4
sbs(g836
g800
tp2418
g1
(g2082
g3
NtRp2419
(dp2420
g2085
F0.5
sg2086
I5
sg2087
g2088
((dp2421
I00
I5
stRp2422
sg2091
I2
sg2092
F6
sbs(g836
g802
tp2423
g1
(g2082
g3
NtRp2424
(dp2425
g2085
F0.5
sg2086
I5
sg2087
g2088
((dp2426
I00
I5
stRp2427
sg2091
I2
sg2092
F6
sbs(g644
g595
tp2428
g1
(g2082
g3
NtRp2429
(dp2430
g2085
F0.5
sg2086
I3
sg2087
g2088
((dp2431
I00
I2
sI01
I1
stRp2432
sg2091
I2
sg2092
F4
sbs(g388
g335
tp2433
g1
(g2082
g3
NtRp2434
(dp2435
g2085
F0.5
sg2086
I4
sg2087
g2088
((dp2436
I00
I4
stRp2437
sg2091
I2
sg2092
F5
sbs(g72
g32
tp2438
g1
(g2082
g3
NtRp2439
(dp2440
g2085
F0.5
sg2086
I17
sg2087
g2088
((dp2441
I00
I17
stRp2442
sg2091
I2
sg2092
F18
sbs(g72
g62
tp2443
g1
(g2082
g3
NtRp2444
(dp2445
g2085
F0.5
sg2086
I17
sg2087
g2088
((dp2446
I00
I17
stRp2447
sg2091
I2
sg2092
F18
sbs(g72
g71
tp2448
g1
(g2082
g3
NtRp2449
(dp2450
g2085
F0.5
sg2086
I17
sg2087
g2088
((dp2451
I00
I17
stRp2452
sg2091
I2
sg2092
F18
sbs(g644
g586
tp2453
g1
(g2082
g3
NtRp2454
(dp2455
g2085
F0.5
sg2086
I3
sg2087
g2088
((dp2456
I00
I3
stRp2457
sg2091
I2
sg2092
F4
sbs(g1152
g1142
tp2458
g1
(g2082
g3
NtRp2459
(dp2460
g2085
F0.5
sg2086
I3
sg2087
g2088
((dp2461
I00
I3
stRp2462
sg2091
I2
sg2092
F4
sbs(g644
g588
tp2463
g1
(g2082
g3
NtRp2464
(dp2465
g2085
F0.5
sg2086
I3
sg2087
g2088
((dp2466
I00
I3
stRp2467
sg2091
I2
sg2092
F4
sbs(g72
g23
tp2468
g1
(g2082
g3
NtRp2469
(dp2470
g2085
F0.5
sg2086
I17
sg2087
g2088
((dp2471
I00
I17
stRp2472
sg2091
I2
sg2092
F18
sbs(g644
g638
tp2473
g1
(g2082
g3
NtRp2474
(dp2475
g2085
F0.5
sg2086
I3
sg2087
g2088
((dp2476
I00
I3
stRp2477
sg2091
I2
sg2092
F4
sbs(g836
g815
tp2478
g1
(g2082
g3
NtRp2479
(dp2480
g2085
F0.5
sg2086
I5
sg2087
g2088
((dp2481
I00
I5
stRp2482
sg2091
I2
sg2092
F6
sbs(g1152
g1132
tp2483
g1
(g2082
g3
NtRp2484
(dp2485
g2085
F0.5
sg2086
I3
sg2087
g2088
((dp2486
I00
I3
stRp2487
sg2091
I2
sg2092
F4
sbs(g1152
g1113
tp2488
g1
(g2082
g3
NtRp2489
(dp2490
g2085
F0.5
sg2086
I3
sg2087
g2088
((dp2491
I00
I3
stRp2492
sg2091
I2
sg2092
F4
sbs(g836
g809
tp2493
g1
(g2082
g3
NtRp2494
(dp2495
g2085
F0.5
sg2086
I5
sg2087
g2088
((dp2496
I00
I3
sI01
I2
stRp2497
sg2091
I2
sg2092
F6
sbs(g388
g372
tp2498
g1
(g2082
g3
NtRp2499
(dp2500
g2085
F0.5
sg2086
I4
sg2087
g2088
((dp2501
I00
I3
sI01
I1
stRp2502
sg2091
I2
sg2092
F5
sbs(g836
g776
tp2503
g1
(g2082
g3
NtRp2504
(dp2505
g2085
F0.5
sg2086
I5
sg2087
g2088
((dp2506
I00
I5
stRp2507
sg2091
I1
sg2092
F5.5
sbs(g644
g590
tp2508
g1
(g2082
g3
NtRp2509
(dp2510
g2085
F0.5
sg2086
I3
sg2087
g2088
((dp2511
I00
I3
stRp2512
sg2091
I2
sg2092
F4
sbs(g72
g24
tp2513
g1
(g2082
g3
NtRp2514
(dp2515
g2085
F0.5
sg2086
I17
sg2087
g2088
((dp2516
I00
I17
stRp2517
sg2091
I2
sg2092
F18
sbs(g72
g27
tp2518
g1
(g2082
g3
NtRp2519
(dp2520
g2085
F0.5
sg2086
I17
sg2087
g2088
((dp2521
I00
I17
stRp2522
sg2091
I2
sg2092
F18
sbs(g1152
g1130
tp2523
g1
(g2082
g3
NtRp2524
(dp2525
g2085
F0.5
sg2086
I3
sg2087
g2088
((dp2526
I00
I3
stRp2527
sg2091
I2
sg2092
F4
sbs(g1152
g1117
tp2528
g1
(g2082
g3
NtRp2529
(dp2530
g2085
F0.5
sg2086
I3
sg2087
g2088
((dp2531
I00
I3
stRp2532
sg2091
I2
sg2092
F4
sbs(g388
g383
tp2533
g1
(g2082
g3
NtRp2534
(dp2535
g2085
F0.5
sg2086
I4
sg2087
g2088
((dp2536
I00
I4
stRp2537
sg2091
I2
sg2092
F5
sbs(g644
g614
tp2538
g1
(g2082
g3
NtRp2539
(dp2540
g2085
F0.5
sg2086
I3
sg2087
g2088
((dp2541
I00
I2
sI01
I1
stRp2542
sg2091
I2
sg2092
F4
sbs(g644
g600
tp2543
g1
(g2082
g3
NtRp2544
(dp2545
g2085
F0.5
sg2086
I3
sg2087
g2088
((dp2546
I00
I3
stRp2547
sg2091
I2
sg2092
F4
sbs(g1152
g1126
tp2548
g1
(g2082
g3
NtRp2549
(dp2550
g2085
F0.5
sg2086
I3
sg2087
g2088
((dp2551
I00
I3
stRp2552
sg2091
I2
sg2092
F4
sbs(g644
g620
tp2553
g1
(g2082
g3
NtRp2554
(dp2555
g2085
F0.5
sg2086
I3
sg2087
g2088
((dp2556
I00
I3
stRp2557
sg2091
I2
sg2092
F4
sbs(g836
g812
tp2558
g1
(g2082
g3
NtRp2559
(dp2560
g2085
F0.5
sg2086
I5
sg2087
g2088
((dp2561
I00
I5
stRp2562
sg2091
I2
sg2092
F6
sbs(g72
g43
tp2563
g1
(g2082
g3
NtRp2564
(dp2565
g2085
F0.5
sg2086
I17
sg2087
g2088
((dp2566
I00
I11
sI01
I6
stRp2567
sg2091
I2
sg2092
F18
sbs(g644
g593
tp2568
g1
(g2082
g3
NtRp2569
(dp2570
g2085
F0.5
sg2086
I3
sg2087
g2088
((dp2571
I00
I3
stRp2572
sg2091
I2
sg2092
F4
sbs(g1152
g1104
tp2573
g1
(g2082
g3
NtRp2574
(dp2575
g2085
F0.5
sg2086
I3
sg2087
g2088
((dp2576
I00
I3
stRp2577
sg2091
I2
sg2092
F4
sbs(g1152
g1092
tp2578
g1
(g2082
g3
NtRp2579
(dp2580
g2085
F0.5
sg2086
I3
sg2087
g2088
((dp2581
I00
I3
stRp2582
sg2091
I1
sg2092
F3.5
sbs(g72
g38
tp2583
g1
(g2082
g3
NtRp2584
(dp2585
g2085
F0.5
sg2086
I17
sg2087
g2088
((dp2586
I00
I17
stRp2587
sg2091
I2
sg2092
F18
sbs(g388
g366
tp2588
g1
(g2082
g3
NtRp2589
(dp2590
g2085
F0.5
sg2086
I4
sg2087
g2088
((dp2591
I00
I4
stRp2592
sg2091
I2
sg2092
F5
sbs(g644
g622
tp2593
g1
(g2082
g3
NtRp2594
(dp2595
g2085
F0.5
sg2086
I3
sg2087
g2088
((dp2596
I00
I2
sI01
I1
stRp2597
sg2091
I2
sg2092
F4
sbs(g388
g351
tp2598
g1
(g2082
g3
NtRp2599
(dp2600
g2085
F0.5
sg2086
I4
sg2087
g2088
((dp2601
I00
I4
stRp2602
sg2091
I2
sg2092
F5
sbs(g388
g379
tp2603
g1
(g2082
g3
NtRp2604
(dp2605
g2085
F0.5
sg2086
I4
sg2087
g2088
((dp2606
I00
I3
sI01
I1
stRp2607
sg2091
I2
sg2092
F5
sbs(g836
g814
tp2608
g1
(g2082
g3
NtRp2609
(dp2610
g2085
F0.5
sg2086
I5
sg2087
g2088
((dp2611
I00
I5
stRp2612
sg2091
I2
sg2092
F6
sbs(g72
g52
tp2613
g1
(g2082
g3
NtRp2614
(dp2615
g2085
F0.5
sg2086
I17
sg2087
g2088
((dp2616
I00
I17
stRp2617
sg2091
I2
sg2092
F18
sbs(g1152
g1149
tp2618
g1
(g2082
g3
NtRp2619
(dp2620
g2085
F0.5
sg2086
I3
sg2087
g2088
((dp2621
I00
I3
stRp2622
sg2091
I1
sg2092
F3.5
sbs(g644
g643
tp2623
g1
(g2082
g3
NtRp2624
(dp2625
g2085
F0.5
sg2086
I3
sg2087
g2088
((dp2626
I00
I3
stRp2627
sg2091
I2
sg2092
F4
sbs(g388
g363
tp2628
g1
(g2082
g3
NtRp2629
(dp2630
g2085
F0.5
sg2086
I4
sg2087
g2088
((dp2631
I00
I4
stRp2632
sg2091
I2
sg2092
F5
sbs(g388
g361
tp2633
g1
(g2082
g3
NtRp2634
(dp2635
g2085
F0.5
sg2086
I4
sg2087
g2088
((dp2636
I00
I4
stRp2637
sg2091
I2
sg2092
F5
sbs(g836
g826
tp2638
g1
(g2082
g3
NtRp2639
(dp2640
g2085
F0.5
sg2086
I5
sg2087
g2088
((dp2641
I00
I5
stRp2642
sg2091
I2
sg2092
F6
sbs(g1152
g1151
tp2643
g1
(g2082
g3
NtRp2644
(dp2645
g2085
F0.5
sg2086
I3
sg2087
g2088
((dp2646
I00
I2
sI01
I1
stRp2647
sg2091
I2
sg2092
F4
sbs(g644
g608
tp2648
g1
(g2082
g3
NtRp2649
(dp2650
g2085
F0.5
sg2086
I3
sg2087
g2088
((dp2651
I00
I3
stRp2652
sg2091
I2
sg2092
F4
sbs(g1152
g1103
tp2653
g1
(g2082
g3
NtRp2654
(dp2655
g2085
F0.5
sg2086
I3
sg2087
g2088
((dp2656
I01
I3
stRp2657
sg2091
I2
sg2092
F4
sbs(g1152
g1099
tp2658
g1
(g2082
g3
NtRp2659
(dp2660
g2085
F0.5
sg2086
I3
sg2087
g2088
((dp2661
I00
I3
stRp2662
sg2091
I2
sg2092
F4
sbs(g836
g775
tp2663
g1
(g2082
g3
NtRp2664
(dp2665
g2085
F0.5
sg2086
I5
sg2087
g2088
((dp2666
I00
I5
stRp2667
sg2091
I2
sg2092
F6
sbs(g836
g827
tp2668
g1
(g2082
g3
NtRp2669
(dp2670
g2085
F0.5
sg2086
I5
sg2087
g2088
((dp2671
I00
I5
stRp2672
sg2091
I2
sg2092
F6
sbs(g72
g69
tp2673
g1
(g2082
g3
NtRp2674
(dp2675
g2085
F0.5
sg2086
I17
sg2087
g2088
((dp2676
I00
I17
stRp2677
sg2091
I1
sg2092
F17.5
sbs(g644
g596
tp2678
g1
(g2082
g3
NtRp2679
(dp2680
g2085
F0.5
sg2086
I3
sg2087
g2088
((dp2681
I00
I3
stRp2682
sg2091
I2
sg2092
F4
sbs(g388
g352
tp2683
g1
(g2082
g3
NtRp2684
(dp2685
g2085
F0.5
sg2086
I4
sg2087
g2088
((dp2686
I00
I4
stRp2687
sg2091
I2
sg2092
F5
sbs(g644
g603
tp2688
g1
(g2082
g3
NtRp2689
(dp2690
g2085
F0.5
sg2086
I3
sg2087
g2088
((dp2691
I00
I3
stRp2692
sg2091
I2
sg2092
F4
sbs(g644
g637
tp2693
g1
(g2082
g3
NtRp2694
(dp2695
g2085
F0.5
sg2086
I3
sg2087
g2088
((dp2696
I00
I3
stRp2697
sg2091
I2
sg2092
F4
sbs(g836
g824
tp2698
g1
(g2082
g3
NtRp2699
(dp2700
g2085
F0.5
sg2086
I5
sg2087
g2088
((dp2701
I00
I5
stRp2702
sg2091
I2
sg2092
F6
sbs(g644
g630
tp2703
g1
(g2082
g3
NtRp2704
(dp2705
g2085
F0.5
sg2086
I3
sg2087
g2088
((dp2706
I00
I3
stRp2707
sg2091
I2
sg2092
F4
sbs(g388
g377
tp2708
g1
(g2082
g3
NtRp2709
(dp2710
g2085
F0.5
sg2086
I4
sg2087
g2088
((dp2711
I00
I4
stRp2712
sg2091
I2
sg2092
F5
sbs(g388
g368
tp2713
g1
(g2082
g3
NtRp2714
(dp2715
g2085
F0.5
sg2086
I4
sg2087
g2088
((dp2716
I00
I3
sI01
I1
stRp2717
sg2091
I2
sg2092
F5
sbs(g836
g791
tp2718
g1
(g2082
g3
NtRp2719
(dp2720
g2085
F0.5
sg2086
I5
sg2087
g2088
((dp2721
I00
I4
sI01
I1
stRp2722
sg2091
I2
sg2092
F6
sbs(g72
g28
tp2723
g1
(g2082
g3
NtRp2724
(dp2725
g2085
F0.5
sg2086
I17
sg2087
g2088
((dp2726
I00
I15
sI01
I2
stRp2727
sg2091
I2
sg2092
F18
sbs(g388
g341
tp2728
g1
(g2082
g3
NtRp2729
(dp2730
g2085
F0.5
sg2086
I4
sg2087
g2088
((dp2731
I00
I4
stRp2732
sg2091
I2
sg2092
F5
sbs(g836
g777
tp2733
g1
(g2082
g3
NtRp2734
(dp2735
g2085
F0.5
sg2086
I5
sg2087
g2088
((dp2736
I01
I5
stRp2737
sg2091
I2
sg2092
F6
sbs(g72
g48
tp2738
g1
(g2082
g3
NtRp2739
(dp2740
g2085
F0.5
sg2086
I17
sg2087
g2088
((dp2741
I00
I17
stRp2742
sg2091
I2
sg2092
F18
sbs(g836
g833
tp2743
g1
(g2082
g3
NtRp2744
(dp2745
g2085
F0.5
sg2086
I5
sg2087
g2088
((dp2746
I00
I5
stRp2747
sg2091
I1
sg2092
F5.5
sbs(g388
g343
tp2748
g1
(g2082
g3
NtRp2749
(dp2750
g2085
F0.5
sg2086
I4
sg2087
g2088
((dp2751
I00
I4
stRp2752
sg2091
I2
sg2092
F5
sbs(g388
g338
tp2753
g1
(g2082
g3
NtRp2754
(dp2755
g2085
F0.5
sg2086
I4
sg2087
g2088
((dp2756
I00
I4
stRp2757
sg2091
I2
sg2092
F5
sbs(g836
g781
tp2758
g1
(g2082
g3
NtRp2759
(dp2760
g2085
F0.5
sg2086
I5
sg2087
g2088
((dp2761
I00
I5
stRp2762
sg2091
I2
sg2092
F6
sbs(g388
g331
tp2763
g1
(g2082
g3
NtRp2764
(dp2765
g2085
F0.5
sg2086
I4
sg2087
g2088
((dp2766
I00
I3
sI01
I1
stRp2767
sg2091
I2
sg2092
F5
sbs(g1152
g1112
tp2768
g1
(g2082
g3
NtRp2769
(dp2770
g2085
F0.5
sg2086
I3
sg2087
g2088
((dp2771
I00
I3
stRp2772
sg2091
I2
sg2092
F4
sbs(g836
g808
tp2773
g1
(g2082
g3
NtRp2774
(dp2775
g2085
F0.5
sg2086
I5
sg2087
g2088
((dp2776
I00
I5
stRp2777
sg2091
I2
sg2092
F6
sbs(g388
g374
tp2778
g1
(g2082
g3
NtRp2779
(dp2780
g2085
F0.5
sg2086
I4
sg2087
g2088
((dp2781
I00
I4
stRp2782
sg2091
I2
sg2092
F5
sbs(g72
g50
tp2783
g1
(g2082
g3
NtRp2784
(dp2785
g2085
F0.5
sg2086
I17
sg2087
g2088
((dp2786
I00
I17
stRp2787
sg2091
I2
sg2092
F18
sbs(g836
g779
tp2788
g1
(g2082
g3
NtRp2789
(dp2790
g2085
F0.5
sg2086
I5
sg2087
g2088
((dp2791
I00
I5
stRp2792
sg2091
I2
sg2092
F6
sbs(g1152
g1140
tp2793
g1
(g2082
g3
NtRp2794
(dp2795
g2085
F0.5
sg2086
I3
sg2087
g2088
((dp2796
I00
I2
sI01
I1
stRp2797
sg2091
I2
sg2092
F4
sbs(g388
g327
tp2798
g1
(g2082
g3
NtRp2799
(dp2800
g2085
F0.5
sg2086
I4
sg2087
g2088
((dp2801
I00
I3
sI01
I1
stRp2802
sg2091
I2
sg2092
F5
sbs(g1152
g1146
tp2803
g1
(g2082
g3
NtRp2804
(dp2805
g2085
F0.5
sg2086
I3
sg2087
g2088
((dp2806
I00
I3
stRp2807
sg2091
I2
sg2092
F4
sbs(g1152
g1121
tp2808
g1
(g2082
g3
NtRp2809
(dp2810
g2085
F0.5
sg2086
I3
sg2087
g2088
((dp2811
I00
I3
stRp2812
sg2091
I2
sg2092
F4
sbs(g388
g378
tp2813
g1
(g2082
g3
NtRp2814
(dp2815
g2085
F0.5
sg2086
I4
sg2087
g2088
((dp2816
I00
I4
stRp2817
sg2091
I2
sg2092
F5
sbs(g388
g342
tp2818
g1
(g2082
g3
NtRp2819
(dp2820
g2085
F0.5
sg2086
I4
sg2087
g2088
((dp2821
I00
I4
stRp2822
sg2091
I2
sg2092
F5
sbs(g1152
g1106
tp2823
g1
(g2082
g3
NtRp2824
(dp2825
g2085
F0.5
sg2086
I3
sg2087
g2088
((dp2826
I00
I3
stRp2827
sg2091
I2
sg2092
F4
sbs(g1152
g1123
tp2828
g1
(g2082
g3
NtRp2829
(dp2830
g2085
F0.5
sg2086
I3
sg2087
g2088
((dp2831
I00
I3
stRp2832
sg2091
I2
sg2092
F4
sbs(g1152
g1102
tp2833
g1
(g2082
g3
NtRp2834
(dp2835
g2085
F0.5
sg2086
I3
sg2087
g2088
((dp2836
I00
I2
sI01
I1
stRp2837
sg2091
I2
sg2092
F4
sbs(g836
g819
tp2838
g1
(g2082
g3
NtRp2839
(dp2840
g2085
F0.5
sg2086
I5
sg2087
g2088
((dp2841
I00
I4
sI01
I1
stRp2842
sg2091
I2
sg2092
F6
sbs(g72
g54
tp2843
g1
(g2082
g3
NtRp2844
(dp2845
g2085
F0.5
sg2086
I17
sg2087
g2088
((dp2846
I00
I17
stRp2847
sg2091
I2
sg2092
F18
sbs(g1152
g1093
tp2848
g1
(g2082
g3
NtRp2849
(dp2850
g2085
F0.5
sg2086
I3
sg2087
g2088
((dp2851
I00
I3
stRp2852
sg2091
I2
sg2092
F4
sbs(g836
g830
tp2853
g1
(g2082
g3
NtRp2854
(dp2855
g2085
F0.5
sg2086
I5
sg2087
g2088
((dp2856
I00
I5
stRp2857
sg2091
I2
sg2092
F6
sbs(g644
g587
tp2858
g1
(g2082
g3
NtRp2859
(dp2860
g2085
F0.5
sg2086
I3
sg2087
g2088
((dp2861
I00
I3
stRp2862
sg2091
I2
sg2092
F4
sbs(g644
g594
tp2863
g1
(g2082
g3
NtRp2864
(dp2865
g2085
F0.5
sg2086
I3
sg2087
g2088
((dp2866
I00
I2
sI01
I1
stRp2867
sg2091
I2
sg2092
F4
sbs(g388
g365
tp2868
g1
(g2082
g3
NtRp2869
(dp2870
g2085
F0.5
sg2086
I4
sg2087
g2088
((dp2871
I00
I4
stRp2872
sg2091
I2
sg2092
F5
sbs(g72
g31
tp2873
g1
(g2082
g3
NtRp2874
(dp2875
g2085
F0.5
sg2086
I17
sg2087
g2088
((dp2876
I00
I17
stRp2877
sg2091
I2
sg2092
F18
sbs(g388
g347
tp2878
g1
(g2082
g3
NtRp2879
(dp2880
g2085
F0.5
sg2086
I4
sg2087
g2088
((dp2881
I00
I4
stRp2882
sg2091
I2
sg2092
F5
sbs(g1152
g1119
tp2883
g1
(g2082
g3
NtRp2884
(dp2885
g2085
F0.5
sg2086
I3
sg2087
g2088
((dp2886
I00
I3
stRp2887
sg2091
I2
sg2092
F4
sbs(g1152
g1137
tp2888
g1
(g2082
g3
NtRp2889
(dp2890
g2085
F0.5
sg2086
I3
sg2087
g2088
((dp2891
I00
I2
sI01
I1
stRp2892
sg2091
I2
sg2092
F4
sbs(g388
g370
tp2893
g1
(g2082
g3
NtRp2894
(dp2895
g2085
F0.5
sg2086
I4
sg2087
g2088
((dp2896
I00
I4
stRp2897
sg2091
I2
sg2092
F5
sbs(g72
g51
tp2898
g1
(g2082
g3
NtRp2899
(dp2900
g2085
F0.5
sg2086
I17
sg2087
g2088
((dp2901
I00
I14
sI01
I3
stRp2902
sg2091
I2
sg2092
F18
sbs(g72
g26
tp2903
g1
(g2082
g3
NtRp2904
(dp2905
g2085
F0.5
sg2086
I17
sg2087
g2088
((dp2906
I00
I17
stRp2907
sg2091
I2
sg2092
F18
sbs(g644
g606
tp2908
g1
(g2082
g3
NtRp2909
(dp2910
g2085
F0.5
sg2086
I3
sg2087
g2088
((dp2911
I00
I2
sI01
I1
stRp2912
sg2091
I2
sg2092
F4
sbs(g72
g34
tp2913
g1
(g2082
g3
NtRp2914
(dp2915
g2085
F0.5
sg2086
I17
sg2087
g2088
((dp2916
I00
I17
stRp2917
sg2091
I2
sg2092
F18
sbs(g644
g591
tp2918
g1
(g2082
g3
NtRp2919
(dp2920
g2085
F0.5
sg2086
I3
sg2087
g2088
((dp2921
I00
I3
stRp2922
sg2091
I2
sg2092
F4
sbs(g644
g617
tp2923
g1
(g2082
g3
NtRp2924
(dp2925
g2085
F0.5
sg2086
I3
sg2087
g2088
((dp2926
I01
I3
stRp2927
sg2091
I2
sg2092
F4
sbs(g1152
g1131
tp2928
g1
(g2082
g3
NtRp2929
(dp2930
g2085
F0.5
sg2086
I3
sg2087
g2088
((dp2931
I00
I3
stRp2932
sg2091
I2
sg2092
F4
sbs(g72
g30
tp2933
g1
(g2082
g3
NtRp2934
(dp2935
g2085
F0.5
sg2086
I17
sg2087
g2088
((dp2936
I00
I17
stRp2937
sg2091
I2
sg2092
F18
sbs(g388
g346
tp2938
g1
(g2082
g3
NtRp2939
(dp2940
g2085
F0.5
sg2086
I4
sg2087
g2088
((dp2941
I00
I4
stRp2942
sg2091
I2
sg2092
F5
sbs(g388
g348
tp2943
g1
(g2082
g3
NtRp2944
(dp2945
g2085
F0.5
sg2086
I4
sg2087
g2088
((dp2946
I00
I4
stRp2947
sg2091
I2
sg2092
F5
sbs(g72
g53
tp2948
g1
(g2082
g3
NtRp2949
(dp2950
g2085
F0.5
sg2086
I17
sg2087
g2088
((dp2951
I00
I16
sI01
I1
stRp2952
sg2091
I2
sg2092
F18
sbs(g644
g604
tp2953
g1
(g2082
g3
NtRp2954
(dp2955
g2085
F0.5
sg2086
I3
sg2087
g2088
((dp2956
I00
I3
stRp2957
sg2091
I2
sg2092
F4
sbs(g644
g639
tp2958
g1
(g2082
g3
NtRp2959
(dp2960
g2085
F0.5
sg2086
I3
sg2087
g2088
((dp2961
I00
I3
stRp2962
sg2091
I2
sg2092
F4
sbs(g388
g340
tp2963
g1
(g2082
g3
NtRp2964
(dp2965
g2085
F0.5
sg2086
I4
sg2087
g2088
((dp2966
I00
I4
stRp2967
sg2091
I2
sg2092
F5
sbs(g388
g359
tp2968
g1
(g2082
g3
NtRp2969
(dp2970
g2085
F0.5
sg2086
I4
sg2087
g2088
((dp2971
I00
I4
stRp2972
sg2091
I2
sg2092
F5
sbs(g72
g64
tp2973
g1
(g2082
g3
NtRp2974
(dp2975
g2085
F0.5
sg2086
I17
sg2087
g2088
((dp2976
I00
I17
stRp2977
sg2091
I2
sg2092
F18
sbs(g1152
g1141
tp2978
g1
(g2082
g3
NtRp2979
(dp2980
g2085
F0.5
sg2086
I3
sg2087
g2088
((dp2981
I00
I3
stRp2982
sg2091
I2
sg2092
F4
sbs(g388
g371
tp2983
g1
(g2082
g3
NtRp2984
(dp2985
g2085
F0.5
sg2086
I4
sg2087
g2088
((dp2986
I00
I4
stRp2987
sg2091
I2
sg2092
F5
sbs(g1152
g1114
tp2988
g1
(g2082
g3
NtRp2989
(dp2990
g2085
F0.5
sg2086
I3
sg2087
g2088
((dp2991
I00
I3
stRp2992
sg2091
I2
sg2092
F4
sbs(g1152
g1125
tp2993
g1
(g2082
g3
NtRp2994
(dp2995
g2085
F0.5
sg2086
I3
sg2087
g2088
((dp2996
I00
I3
stRp2997
sg2091
I2
sg2092
F4
sbs(g1152
g1096
tp2998
g1
(g2082
g3
NtRp2999
(dp3000
g2085
F0.5
sg2086
I3
sg2087
g2088
((dp3001
I00
I2
sI01
I1
stRp3002
sg2091
I2
sg2092
F4
sbs(g836
g835
tp3003
g1
(g2082
g3
NtRp3004
(dp3005
g2085
F0.5
sg2086
I5
sg2087
g2088
((dp3006
I00
I2
sI01
I3
stRp3007
sg2091
I2
sg2092
F6
sbs(g644
g631
tp3008
g1
(g2082
g3
NtRp3009
(dp3010
g2085
F0.5
sg2086
I3
sg2087
g2088
((dp3011
I00
I3
stRp3012
sg2091
I2
sg2092
F4
sbs(g388
g376
tp3013
g1
(g2082
g3
NtRp3014
(dp3015
g2085
F0.5
sg2086
I4
sg2087
g2088
((dp3016
I00
I4
stRp3017
sg2091
I2
sg2092
F5
sbs(g1152
g1100
tp3018
g1
(g2082
g3
NtRp3019
(dp3020
g2085
F0.5
sg2086
I3
sg2087
g2088
((dp3021
I00
I3
stRp3022
sg2091
I2
sg2092
F4
sbs(g72
g68
tp3023
g1
(g2082
g3
NtRp3024
(dp3025
g2085
F0.5
sg2086
I17
sg2087
g2088
((dp3026
I00
I17
stRp3027
sg2091
I2
sg2092
F18
sbs(g1152
g1091
tp3028
g1
(g2082
g3
NtRp3029
(dp3030
g2085
F0.5
sg2086
I3
sg2087
g2088
((dp3031
I00
I3
stRp3032
sg2091
I2
sg2092
F4
sbs(g388
g356
tp3033
g1
(g2082
g3
NtRp3034
(dp3035
g2085
F0.5
sg2086
I4
sg2087
g2088
((dp3036
I00
I4
stRp3037
sg2091
I2
sg2092
F5
sbs(g388
g382
tp3038
g1
(g2082
g3
NtRp3039
(dp3040
g2085
F0.5
sg2086
I4
sg2087
g2088
((dp3041
I00
I4
stRp3042
sg2091
I2
sg2092
F5
sbs(g72
g22
tp3043
g1
(g2082
g3
NtRp3044
(dp3045
g2085
F0.5
sg2086
I17
sg2087
g2088
((dp3046
I00
I17
stRp3047
sg2091
I2
sg2092
F18
sbs(g1152
g1120
tp3048
g1
(g2082
g3
NtRp3049
(dp3050
g2085
F0.5
sg2086
I3
sg2087
g2088
((dp3051
I00
I3
stRp3052
sg2091
I2
sg2092
F4
sbs(g1152
g1110
tp3053
g1
(g2082
g3
NtRp3054
(dp3055
g2085
F0.5
sg2086
I3
sg2087
g2088
((dp3056
I00
I3
stRp3057
sg2091
I2
sg2092
F4
sbs(g1152
g1094
tp3058
g1
(g2082
g3
NtRp3059
(dp3060
g2085
F0.5
sg2086
I3
sg2087
g2088
((dp3061
I00
I3
stRp3062
sg2091
I2
sg2092
F4
sbs(g72
g56
tp3063
g1
(g2082
g3
NtRp3064
(dp3065
g2085
F0.5
sg2086
I17
sg2087
g2088
((dp3066
I00
I17
stRp3067
sg2091
I2
sg2092
F18
sbs(g644
g641
tp3068
g1
(g2082
g3
NtRp3069
(dp3070
g2085
F0.5
sg2086
I3
sg2087
g2088
((dp3071
I00
I3
stRp3072
sg2091
I1
sg2092
F3.5
sbs(g644
g598
tp3073
g1
(g2082
g3
NtRp3074
(dp3075
g2085
F0.5
sg2086
I3
sg2087
g2088
((dp3076
I00
I1
sI01
I2
stRp3077
sg2091
I2
sg2092
F4
sbs(g644
g636
tp3078
g1
(g2082
g3
NtRp3079
(dp3080
g2085
F0.5
sg2086
I3
sg2087
g2088
((dp3081
I01
I3
stRp3082
sg2091
I2
sg2092
F4
sbs(g836
g794
tp3083
g1
(g2082
g3
NtRp3084
(dp3085
g2085
F0.5
sg2086
I5
sg2087
g2088
((dp3086
I00
I3
sI01
I2
stRp3087
sg2091
I2
sg2092
F6
sbs(g72
g60
tp3088
g1
(g2082
g3
NtRp3089
(dp3090
g2085
F0.5
sg2086
I17
sg2087
g2088
((dp3091
I00
I17
stRp3092
sg2091
I2
sg2092
F18
sbs(g644
g602
tp3093
g1
(g2082
g3
NtRp3094
(dp3095
g2085
F0.5
sg2086
I3
sg2087
g2088
((dp3096
I00
I3
stRp3097
sg2091
I2
sg2092
F4
sbs(g1152
g1147
tp3098
g1
(g2082
g3
NtRp3099
(dp3100
g2085
F0.5
sg2086
I3
sg2087
g2088
((dp3101
I00
I2
sI01
I1
stRp3102
sg2091
I2
sg2092
F4
sbs(g388
g355
tp3103
g1
(g2082
g3
NtRp3104
(dp3105
g2085
F0.5
sg2086
I4
sg2087
g2088
((dp3106
I00
I3
sI01
I1
stRp3107
sg2091
I2
sg2092
F5
sbs(g72
g67
tp3108
g1
(g2082
g3
NtRp3109
(dp3110
g2085
F0.5
sg2086
I17
sg2087
g2088
((dp3111
I00
I17
stRp3112
sg2091
I2
sg2092
F18
sbs(g1152
g1136
tp3113
g1
(g2082
g3
NtRp3114
(dp3115
g2085
F0.5
sg2086
I3
sg2087
g2088
((dp3116
I00
I3
stRp3117
sg2091
I2
sg2092
F4
sbs(g72
g37
tp3118
g1
(g2082
g3
NtRp3119
(dp3120
g2085
F0.5
sg2086
I17
sg2087
g2088
((dp3121
I00
I16
sI01
I1
stRp3122
sg2091
I2
sg2092
F18
sbs(g836
g817
tp3123
g1
(g2082
g3
NtRp3124
(dp3125
g2085
F0.5
sg2086
I5
sg2087
g2088
((dp3126
I00
I5
stRp3127
sg2091
I2
sg2092
F6
sbs(g836
g778
tp3128
g1
(g2082
g3
NtRp3129
(dp3130
g2085
F0.5
sg2086
I5
sg2087
g2088
((dp3131
I00
I5
stRp3132
sg2091
I2
sg2092
F6
sbs(g836
g792
tp3133
g1
(g2082
g3
NtRp3134
(dp3135
g2085
F0.5
sg2086
I5
sg2087
g2088
((dp3136
I00
I5
stRp3137
sg2091
I2
sg2092
F6
sbs(g388
g329
tp3138
g1
(g2082
g3
NtRp3139
(dp3140
g2085
F0.5
sg2086
I4
sg2087
g2088
((dp3141
I00
I4
stRp3142
sg2091
I2
sg2092
F5
sbs(g836
g829
tp3143
g1
(g2082
g3
NtRp3144
(dp3145
g2085
F0.5
sg2086
I5
sg2087
g2088
((dp3146
I00
I5
stRp3147
sg2091
I2
sg2092
F6
sbs(g1152
g1138
tp3148
g1
(g2082
g3
NtRp3149
(dp3150
g2085
F0.5
sg2086
I3
sg2087
g2088
((dp3151
I00
I3
stRp3152
sg2091
I2
sg2092
F4
sbs(g72
g65
tp3153
g1
(g2082
g3
NtRp3154
(dp3155
g2085
F0.5
sg2086
I17
sg2087
g2088
((dp3156
I00
I16
sI01
I1
stRp3157
sg2091
I2
sg2092
F18
sbs(g72
g44
tp3158
g1
(g2082
g3
NtRp3159
(dp3160
g2085
F0.5
sg2086
I17
sg2087
g2088
((dp3161
I00
I16
sI01
I1
stRp3162
sg2091
I2
sg2092
F18
sbs(g72
g59
tp3163
g1
(g2082
g3
NtRp3164
(dp3165
g2085
F0.5
sg2086
I17
sg2087
g2088
((dp3166
I00
I16
sI01
I1
stRp3167
sg2091
I2
sg2092
F18
sbs(g836
g811
tp3168
g1
(g2082
g3
NtRp3169
(dp3170
g2085
F0.5
sg2086
I5
sg2087
g2088
((dp3171
I00
I5
stRp3172
sg2091
I2
sg2092
F6
sbs(g72
g39
tp3173
g1
(g2082
g3
NtRp3174
(dp3175
g2085
F0.5
sg2086
I17
sg2087
g2088
((dp3176
I00
I16
sI01
I1
stRp3177
sg2091
I2
sg2092
F18
sbs(g644
g640
tp3178
g1
(g2082
g3
NtRp3179
(dp3180
g2085
F0.5
sg2086
I3
sg2087
g2088
((dp3181
I00
I2
sI01
I1
stRp3182
sg2091
I2
sg2092
F4
sbs(g1152
g1135
tp3183
g1
(g2082
g3
NtRp3184
(dp3185
g2085
F0.5
sg2086
I3
sg2087
g2088
((dp3186
I00
I3
stRp3187
sg2091
I2
sg2092
F4
sbs(g1152
g1109
tp3188
g1
(g2082
g3
NtRp3189
(dp3190
g2085
F0.5
sg2086
I3
sg2087
g2088
((dp3191
I00
I2
sI01
I1
stRp3192
sg2091
I2
sg2092
F4
sbs(g388
g328
tp3193
g1
(g2082
g3
NtRp3194
(dp3195
g2085
F0.5
sg2086
I4
sg2087
g2088
((dp3196
I00
I4
stRp3197
sg2091
I1
sg2092
F4.5
sbs(g388
g330
tp3198
g1
(g2082
g3
NtRp3199
(dp3200
g2085
F0.5
sg2086
I4
sg2087
g2088
((dp3201
I00
I3
sI01
I1
stRp3202
sg2091
I2
sg2092
F5
sbs(g644
g642
tp3203
g1
(g2082
g3
NtRp3204
(dp3205
g2085
F0.5
sg2086
I3
sg2087
g2088
((dp3206
I00
I3
stRp3207
sg2091
I2
sg2092
F4
sbs(g644
g592
tp3208
g1
(g2082
g3
NtRp3209
(dp3210
g2085
F0.5
sg2086
I3
sg2087
g2088
((dp3211
I00
I3
stRp3212
sg2091
I2
sg2092
F4
sbs(g1152
g1145
tp3213
g1
(g2082
g3
NtRp3214
(dp3215
g2085
F0.5
sg2086
I3
sg2087
g2088
((dp3216
I00
I3
stRp3217
sg2091
I2
sg2092
F4
sbs(g836
g787
tp3218
g1
(g2082
g3
NtRp3219
(dp3220
g2085
F0.5
sg2086
I5
sg2087
g2088
((dp3221
I00
I2
sI01
I3
stRp3222
sg2091
I2
sg2092
F6
sbs(g1152
g1127
tp3223
g1
(g2082
g3
NtRp3224
(dp3225
g2085
F0.5
sg2086
I3
sg2087
g2088
((dp3226
I00
I3
stRp3227
sg2091
I2
sg2092
F4
sbs(g388
g364
tp3228
g1
(g2082
g3
NtRp3229
(dp3230
g2085
F0.5
sg2086
I4
sg2087
g2088
((dp3231
I00
I4
stRp3232
sg2091
I2
sg2092
F5
sbs(g1152
g1150
tp3233
g1
(g2082
g3
NtRp3234
(dp3235
g2085
F0.5
sg2086
I3
sg2087
g2088
((dp3236
I00
I3
stRp3237
sg2091
I2
sg2092
F4
sbs(g644
g627
tp3238
g1
(g2082
g3
NtRp3239
(dp3240
g2085
F0.5
sg2086
I3
sg2087
g2088
((dp3241
I00
I3
stRp3242
sg2091
I2
sg2092
F4
sbs(g836
g793
tp3243
g1
(g2082
g3
NtRp3244
(dp3245
g2085
F0.5
sg2086
I5
sg2087
g2088
((dp3246
I00
I5
stRp3247
sg2091
I2
sg2092
F6
sbs(g644
g632
tp3248
g1
(g2082
g3
NtRp3249
(dp3250
g2085
F0.5
sg2086
I3
sg2087
g2088
((dp3251
I00
I3
stRp3252
sg2091
I2
sg2092
F4
sbs(g72
g49
tp3253
g1
(g2082
g3
NtRp3254
(dp3255
g2085
F0.5
sg2086
I17
sg2087
g2088
((dp3256
I00
I16
sI01
I1
stRp3257
sg2091
I2
sg2092
F18
sbs(g836
g795
tp3258
g1
(g2082
g3
NtRp3259
(dp3260
g2085
F0.5
sg2086
I5
sg2087
g2088
((dp3261
I00
I3
sI01
I2
stRp3262
sg2091
I2
sg2092
F6
sbs(g72
g12
tp3263
g1
(g2082
g3
NtRp3264
(dp3265
g2085
F0.5
sg2086
I17
sg2087
g2088
((dp3266
I00
I17
stRp3267
sg2091
I1
sg2092
F17.5
sbs(g644
g607
tp3268
g1
(g2082
g3
NtRp3269
(dp3270
g2085
F0.5
sg2086
I3
sg2087
g2088
((dp3271
I00
I3
stRp3272
sg2091
I2
sg2092
F4
sbs(g72
g20
tp3273
g1
(g2082
g3
NtRp3274
(dp3275
g2085
F0.5
sg2086
I17
sg2087
g2088
((dp3276
I00
I16
sI01
I1
stRp3277
sg2091
I2
sg2092
F18
sbs(g644
g629
tp3278
g1
(g2082
g3
NtRp3279
(dp3280
g2085
F0.5
sg2086
I3
sg2087
g2088
((dp3281
I00
I2
sI01
I1
stRp3282
sg2091
I2
sg2092
F4
sbs(g388
g333
tp3283
g1
(g2082
g3
NtRp3284
(dp3285
g2085
F0.5
sg2086
I4
sg2087
g2088
((dp3286
I00
I4
stRp3287
sg2091
I2
sg2092
F5
sbs(g388
g362
tp3288
g1
(g2082
g3
NtRp3289
(dp3290
g2085
F0.5
sg2086
I4
sg2087
g2088
((dp3291
I00
I4
stRp3292
sg2091
I2
sg2092
F5
sbs(g644
g625
tp3293
g1
(g2082
g3
NtRp3294
(dp3295
g2085
F0.5
sg2086
I3
sg2087
g2088
((dp3296
I00
I3
stRp3297
sg2091
I2
sg2092
F4
sbs(g388
g381
tp3298
g1
(g2082
g3
NtRp3299
(dp3300
g2085
F0.5
sg2086
I4
sg2087
g2088
((dp3301
I00
I4
stRp3302
sg2091
I2
sg2092
F5
sbs(g388
g367
tp3303
g1
(g2082
g3
NtRp3304
(dp3305
g2085
F0.5
sg2086
I4
sg2087
g2088
((dp3306
I00
I4
stRp3307
sg2091
I2
sg2092
F5
sbs(g1152
g1128
tp3308
g1
(g2082
g3
NtRp3309
(dp3310
g2085
F0.5
sg2086
I3
sg2087
g2088
((dp3311
I00
I2
sI01
I1
stRp3312
sg2091
I2
sg2092
F4
sbs(g388
g369
tp3313
g1
(g2082
g3
NtRp3314
(dp3315
g2085
F0.5
sg2086
I4
sg2087
g2088
((dp3316
I00
I4
stRp3317
sg2091
I2
sg2092
F5
sbs(g836
g798
tp3318
g1
(g2082
g3
NtRp3319
(dp3320
g2085
F0.5
sg2086
I5
sg2087
g2088
((dp3321
I00
I3
sI01
I2
stRp3322
sg2091
I2
sg2092
F6
sbs(g1152
g1133
tp3323
g1
(g2082
g3
NtRp3324
(dp3325
g2085
F0.5
sg2086
I3
sg2087
g2088
((dp3326
I00
I3
stRp3327
sg2091
I2
sg2092
F4
sbs(g644
g616
tp3328
g1
(g2082
g3
NtRp3329
(dp3330
g2085
F0.5
sg2086
I3
sg2087
g2088
((dp3331
I00
I3
stRp3332
sg2091
I2
sg2092
F4
sbs(g644
g628
tp3333
g1
(g2082
g3
NtRp3334
(dp3335
g2085
F0.5
sg2086
I3
sg2087
g2088
((dp3336
I00
I3
stRp3337
sg2091
I2
sg2092
F4
sbs(g1152
g1107
tp3338
g1
(g2082
g3
NtRp3339
(dp3340
g2085
F0.5
sg2086
I3
sg2087
g2088
((dp3341
I00
I3
stRp3342
sg2091
I2
sg2092
F4
sbs(g836
g804
tp3343
g1
(g2082
g3
NtRp3344
(dp3345
g2085
F0.5
sg2086
I5
sg2087
g2088
((dp3346
I00
I4
sI01
I1
stRp3347
sg2091
I2
sg2092
F6
sbs(g644
g611
tp3348
g1
(g2082
g3
NtRp3349
(dp3350
g2085
F0.5
sg2086
I3
sg2087
g2088
((dp3351
I00
I3
stRp3352
sg2091
I2
sg2092
F4
sbs(g836
g803
tp3353
g1
(g2082
g3
NtRp3354
(dp3355
g2085
F0.5
sg2086
I5
sg2087
g2088
((dp3356
I00
I5
stRp3357
sg2091
I2
sg2092
F6
sbs(g388
g373
tp3358
g1
(g2082
g3
NtRp3359
(dp3360
g2085
F0.5
sg2086
I4
sg2087
g2088
((dp3361
I00
I4
stRp3362
sg2091
I2
sg2092
F5
sbs(g836
g823
tp3363
g1
(g2082
g3
NtRp3364
(dp3365
g2085
F0.5
sg2086
I5
sg2087
g2088
((dp3366
I00
I5
stRp3367
sg2091
I2
sg2092
F6
sbs(g836
g828
tp3368
g1
(g2082
g3
NtRp3369
(dp3370
g2085
F0.5
sg2086
I5
sg2087
g2088
((dp3371
I00
I3
sI01
I2
stRp3372
sg2091
I2
sg2092
F6
sbs(g72
g61
tp3373
g1
(g2082
g3
NtRp3374
(dp3375
g2085
F0.5
sg2086
I17
sg2087
g2088
((dp3376
I00
I8
sI01
I9
stRp3377
sg2091
I2
sg2092
F18
sbs(g72
g70
tp3378
g1
(g2082
g3
NtRp3379
(dp3380
g2085
F0.5
sg2086
I17
sg2087
g2088
((dp3381
I00
I17
stRp3382
sg2091
I2
sg2092
F18
sbs(g644
g623
tp3383
g1
(g2082
g3
NtRp3384
(dp3385
g2085
F0.5
sg2086
I3
sg2087
g2088
((dp3386
I00
I3
stRp3387
sg2091
I2
sg2092
F4
sbs(g644
g624
tp3388
g1
(g2082
g3
NtRp3389
(dp3390
g2085
F0.5
sg2086
I3
sg2087
g2088
((dp3391
I00
I3
stRp3392
sg2091
I2
sg2092
F4
sbs(g836
g816
tp3393
g1
(g2082
g3
NtRp3394
(dp3395
g2085
F0.5
sg2086
I5
sg2087
g2088
((dp3396
I00
I5
stRp3397
sg2091
I2
sg2092
F6
sbs(g72
g63
tp3398
g1
(g2082
g3
NtRp3399
(dp3400
g2085
F0.5
sg2086
I17
sg2087
g2088
((dp3401
I00
I16
sI01
I1
stRp3402
sg2091
I2
sg2092
F18
sbs(g72
g35
tp3403
g1
(g2082
g3
NtRp3404
(dp3405
g2085
F0.5
sg2086
I17
sg2087
g2088
((dp3406
I00
I17
stRp3407
sg2091
I2
sg2092
F18
sbs(g388
g337
tp3408
g1
(g2082
g3
NtRp3409
(dp3410
g2085
F0.5
sg2086
I4
sg2087
g2088
((dp3411
I00
I4
stRp3412
sg2091
I2
sg2092
F5
sbs(g1152
g1129
tp3413
g1
(g2082
g3
NtRp3414
(dp3415
g2085
F0.5
sg2086
I3
sg2087
g2088
((dp3416
I00
I3
stRp3417
sg2091
I2
sg2092
F4
sbs(g72
g29
tp3418
g1
(g2082
g3
NtRp3419
(dp3420
g2085
F0.5
sg2086
I17
sg2087
g2088
((dp3421
I00
I17
stRp3422
sg2091
I2
sg2092
F18
sbs(g836
g786
tp3423
g1
(g2082
g3
NtRp3424
(dp3425
g2085
F0.5
sg2086
I5
sg2087
g2088
((dp3426
I00
I5
stRp3427
sg2091
I2
sg2092
F6
sbs(g388
g353
tp3428
g1
(g2082
g3
NtRp3429
(dp3430
g2085
F0.5
sg2086
I4
sg2087
g2088
((dp3431
I00
I4
stRp3432
sg2091
I2
sg2092
F5
sbs(g644
g584
tp3433
g1
(g2082
g3
NtRp3434
(dp3435
g2085
F0.5
sg2086
I3
sg2087
g2088
((dp3436
I00
I3
stRp3437
sg2091
I1
sg2092
F3.5
sbs(g1152
g1139
tp3438
g1
(g2082
g3
NtRp3439
(dp3440
g2085
F0.5
sg2086
I3
sg2087
g2088
((dp3441
I00
I3
stRp3442
sg2091
I2
sg2092
F4
sbs(g1152
g1118
tp3443
g1
(g2082
g3
NtRp3444
(dp3445
g2085
F0.5
sg2086
I3
sg2087
g2088
((dp3446
I00
I3
stRp3447
sg2091
I2
sg2092
F4
sbs(g388
g386
tp3448
g1
(g2082
g3
NtRp3449
(dp3450
g2085
F0.5
sg2086
I4
sg2087
g2088
((dp3451
I00
I4
stRp3452
sg2091
I2
sg2092
F5
sbs(g388
g350
tp3453
g1
(g2082
g3
NtRp3454
(dp3455
g2085
F0.5
sg2086
I4
sg2087
g2088
((dp3456
I00
I4
stRp3457
sg2091
I2
sg2092
F5
sbs(g388
g358
tp3458
g1
(g2082
g3
NtRp3459
(dp3460
g2085
F0.5
sg2086
I4
sg2087
g2088
((dp3461
I00
I4
stRp3462
sg2091
I2
sg2092
F5
sbs(g836
g806
tp3463
g1
(g2082
g3
NtRp3464
(dp3465
g2085
F0.5
sg2086
I5
sg2087
g2088
((dp3466
I00
I5
stRp3467
sg2091
I2
sg2092
F6
sbs(g1152
g1144
tp3468
g1
(g2082
g3
NtRp3469
(dp3470
g2085
F0.5
sg2086
I3
sg2087
g2088
((dp3471
I01
I3
stRp3472
sg2091
I2
sg2092
F4
sbs(g388
g334
tp3473
g1
(g2082
g3
NtRp3474
(dp3475
g2085
F0.5
sg2086
I4
sg2087
g2088
((dp3476
I00
I3
sI01
I1
stRp3477
sg2091
I2
sg2092
F5
sbs(g72
g40
tp3478
g1
(g2082
g3
NtRp3479
(dp3480
g2085
F0.5
sg2086
I17
sg2087
g2088
((dp3481
I00
I17
stRp3482
sg2091
I2
sg2092
F18
sbs(g1152
g1095
tp3483
g1
(g2082
g3
NtRp3484
(dp3485
g2085
F0.5
sg2086
I3
sg2087
g2088
((dp3486
I00
I3
stRp3487
sg2091
I2
sg2092
F4
sbs(g836
g831
tp3488
g1
(g2082
g3
NtRp3489
(dp3490
g2085
F0.5
sg2086
I5
sg2087
g2088
((dp3491
I00
I2
sI01
I3
stRp3492
sg2091
I2
sg2092
F6
sbs(g1152
g1115
tp3493
g1
(g2082
g3
NtRp3494
(dp3495
g2085
F0.5
sg2086
I3
sg2087
g2088
((dp3496
I00
I3
stRp3497
sg2091
I2
sg2092
F4
sbs(g1152
g1097
tp3498
g1
(g2082
g3
NtRp3499
(dp3500
g2085
F0.5
sg2086
I3
sg2087
g2088
((dp3501
I00
I3
stRp3502
sg2091
I2
sg2092
F4
sbs(g836
g813
tp3503
g1
(g2082
g3
NtRp3504
(dp3505
g2085
F0.5
sg2086
I5
sg2087
g2088
((dp3506
I00
I5
stRp3507
sg2091
I2
sg2092
F6
sbs(g836
g797
tp3508
g1
(g2082
g3
NtRp3509
(dp3510
g2085
F0.5
sg2086
I5
sg2087
g2088
((dp3511
I00
I5
stRp3512
sg2091
I2
sg2092
F6
sbs(g644
g621
tp3513
g1
(g2082
g3
NtRp3514
(dp3515
g2085
F0.5
sg2086
I3
sg2087
g2088
((dp3516
I00
I3
stRp3517
sg2091
I2
sg2092
F4
sbs(g644
g585
tp3518
g1
(g2082
g3
NtRp3519
(dp3520
g2085
F0.5
sg2086
I3
sg2087
g2088
((dp3521
I00
I3
stRp3522
sg2091
I2
sg2092
F4
sbs(g644
g605
tp3523
g1
(g2082
g3
NtRp3524
(dp3525
g2085
F0.5
sg2086
I3
sg2087
g2088
((dp3526
I00
I3
stRp3527
sg2091
I2
sg2092
F4
sbs(g1152
g1134
tp3528
g1
(g2082
g3
NtRp3529
(dp3530
g2085
F0.5
sg2086
I3
sg2087
g2088
((dp3531
I00
I3
stRp3532
sg2091
I2
sg2092
F4
sbs(g388
g385
tp3533
g1
(g2082
g3
NtRp3534
(dp3535
g2085
F0.5
sg2086
I4
sg2087
g2088
((dp3536
I00
I4
stRp3537
sg2091
I1
sg2092
F4.5
sbs(g644
g601
tp3538
g1
(g2082
g3
NtRp3539
(dp3540
g2085
F0.5
sg2086
I3
sg2087
g2088
((dp3541
I00
I3
stRp3542
sg2091
I2
sg2092
F4
sbs(g644
g633
tp3543
g1
(g2082
g3
NtRp3544
(dp3545
g2085
F0.5
sg2086
I3
sg2087
g2088
((dp3546
I00
I3
stRp3547
sg2091
I2
sg2092
F4
sbs(g388
g332
tp3548
g1
(g2082
g3
NtRp3549
(dp3550
g2085
F0.5
sg2086
I4
sg2087
g2088
((dp3551
I00
I4
stRp3552
sg2091
I2
sg2092
F5
sbs(g836
g789
tp3553
g1
(g2082
g3
NtRp3554
(dp3555
g2085
F0.5
sg2086
I5
sg2087
g2088
((dp3556
I00
I5
stRp3557
sg2091
I2
sg2092
F6
sbs(g836
g807
tp3558
g1
(g2082
g3
NtRp3559
(dp3560
g2085
F0.5
sg2086
I5
sg2087
g2088
((dp3561
I00
I5
stRp3562
sg2091
I2
sg2092
F6
sbs(g644
g626
tp3563
g1
(g2082
g3
NtRp3564
(dp3565
g2085
F0.5
sg2086
I3
sg2087
g2088
((dp3566
I00
I3
stRp3567
sg2091
I2
sg2092
F4
sbs(g644
g597
tp3568
g1
(g2082
g3
NtRp3569
(dp3570
g2085
F0.5
sg2086
I3
sg2087
g2088
((dp3571
I00
I3
stRp3572
sg2091
I2
sg2092
F4
sbs(g836
g818
tp3573
g1
(g2082
g3
NtRp3574
(dp3575
g2085
F0.5
sg2086
I5
sg2087
g2088
((dp3576
I00
I3
sI01
I2
stRp3577
sg2091
I2
sg2092
F6
sbs(g388
g384
tp3578
g1
(g2082
g3
NtRp3579
(dp3580
g2085
F0.5
sg2086
I4
sg2087
g2088
((dp3581
I00
I4
stRp3582
sg2091
I2
sg2092
F5
sbs(g72
g47
tp3583
g1
(g2082
g3
NtRp3584
(dp3585
g2085
F0.5
sg2086
I17
sg2087
g2088
((dp3586
I00
I16
sI01
I1
stRp3587
sg2091
I2
sg2092
F18
sbs(g836
g834
tp3588
g1
(g2082
g3
NtRp3589
(dp3590
g2085
F0.5
sg2086
I5
sg2087
g2088
((dp3591
I00
I4
sI01
I1
stRp3592
sg2091
I2
sg2092
F6
sbs(g644
g635
tp3593
g1
(g2082
g3
NtRp3594
(dp3595
g2085
F0.5
sg2086
I3
sg2087
g2088
((dp3596
I00
I3
stRp3597
sg2091
I2
sg2092
F4
sbs(g72
g41
tp3598
g1
(g2082
g3
NtRp3599
(dp3600
g2085
F0.5
sg2086
I17
sg2087
g2088
((dp3601
I00
I17
stRp3602
sg2091
I2
sg2092
F18
sbs(g1152
g1143
tp3603
g1
(g2082
g3
NtRp3604
(dp3605
g2085
F0.5
sg2086
I3
sg2087
g2088
((dp3606
I00
I3
stRp3607
sg2091
I2
sg2092
F4
sbs(g1152
g1116
tp3608
g1
(g2082
g3
NtRp3609
(dp3610
g2085
F0.5
sg2086
I3
sg2087
g2088
((dp3611
I00
I3
stRp3612
sg2091
I2
sg2092
F4
sbssS'_label_probdist'
p3613
g1
(g2082
g3
NtRp3614
(dp3615
g2085
F0.5
sg2086
I32
sg2087
g2088
((dp3616
g1152
I3
sg388
I4
sg836
I5
sg72
I17
sg644
I3
stRp3617
sg2091
I5
sg2092
F34.5
sbsbsb.