ccopy_reg
_reconstructor
p1
(ctextblob.classifiers
NaiveBayesClassifier
p2
c__builtin__
object
p3
NtRp4
(dp5
S'format_kwargs'
p6
(dp7
sS'train_features'
p8
(lp9
((dp10
Vcontains(going)
p11
I00
sVcontains('m)
p12
I00
sVcontains(this)
p13
I00
sVcontains(home)
p14
I00
sVcontains(night)
p15
I00
sVcontains(into)
p16
I00
sVcontains(me)
p17
I00
sVcontains(have)
p18
I00
sVcontains(how)
p19
I01
sVcontains(your)
p20
I00
sVcontains(today)
p21
I01
sVcontains(break)
p22
I00
sVcontains(the)
p23
I00
sVcontains(mail)
p24
I00
sVcontains(morning)
p25
I00
sVcontains(coffee)
p26
I00
sVcontains(down)
p27
I00
sVcontains(next)
p28
I00
sVcontains(bring)
p29
I00
sVcontains(deliver)
p30
I00
sVcontains(paper)
p31
I00
sVcontains(to)
p32
I00
sVcontains(my)
p33
I00
sVcontains(office)
p34
I00
sVcontains(is)
p35
I00
sVcontains(a)
p36
I00
sVcontains(you)
p37
I01
sVcontains(cup)
p38
I00
sVcontains(see)
p39
I00
sVcontains(pencil)
p40
I00
sVcontains(and)
p41
I00
sVcontains(up)
p42
I00
sVcontains(door)
p43
I00
sVcontains(some)
p44
I00
sVcontains(hey)
p45
I00
sVcontains(i)
p46
I00
sVcontains(letter)
p47
I00
sVcontains(of)
p48
I00
sVcontains(later)
p49
I00
sVcontains(it)
p50
I00
sVcontains(off)
p51
I00
sVcontains(good)
p52
I00
sVcontains(over)
p53
I00
sVcontains(hello)
p54
I01
sVcontains(get)
p55
I00
sVcontains(day)
p56
I00
sVcontains(go)
p57
I00
sVcontains(what)
p58
I00
sVcontains(are)
p59
I01
sVcontains(365)
p60
I00
sVcontains(room)
p61
I00
sVcontains('s)
p62
I00
sVcontains(drop)
p63
I00
sVcontains(hall)
p64
I00
sS'greeting'
p65
tp66
a((dp67
Vcontains(going)
p68
I00
sVcontains('m)
p69
I00
sVcontains(this)
p70
I00
sVcontains(home)
p71
I00
sVcontains(night)
p72
I00
sVcontains(into)
p73
I00
sVcontains(me)
p74
I00
sVcontains(have)
p75
I00
sVcontains(how)
p76
I00
sVcontains(your)
p77
I00
sVcontains(today)
p78
I00
sVcontains(break)
p79
I00
sVcontains(the)
p80
I00
sVcontains(mail)
p81
I00
sVcontains(morning)
p82
I00
sVcontains(coffee)
p83
I00
sVcontains(down)
p84
I00
sVcontains(next)
p85
I00
sVcontains(bring)
p86
I00
sVcontains(deliver)
p87
I00
sVcontains(paper)
p88
I00
sVcontains(to)
p89
I00
sVcontains(my)
p90
I00
sVcontains(office)
p91
I00
sVcontains(is)
p92
I00
sVcontains(a)
p93
I00
sVcontains(you)
p94
I00
sVcontains(cup)
p95
I00
sVcontains(see)
p96
I00
sVcontains(pencil)
p97
I00
sVcontains(and)
p98
I00
sVcontains(up)
p99
I01
sVcontains(door)
p100
I00
sVcontains(some)
p101
I00
sVcontains(hey)
p102
I00
sVcontains(i)
p103
I00
sVcontains(letter)
p104
I00
sVcontains(of)
p105
I00
sVcontains(later)
p106
I00
sVcontains(it)
p107
I00
sVcontains(off)
p108
I00
sVcontains(good)
p109
I00
sVcontains(over)
p110
I00
sVcontains(hello)
p111
I00
sVcontains(get)
p112
I00
sVcontains(day)
p113
I00
sVcontains(go)
p114
I00
sVcontains(what)
p115
I01
sVcontains(are)
p116
I00
sVcontains(365)
p117
I00
sVcontains(room)
p118
I00
sVcontains('s)
p119
I00
sVcontains(drop)
p120
I00
sVcontains(hall)
p121
I00
sg65
tp122
a((dp123
Vcontains(going)
p124
I01
sVcontains('m)
p125
I00
sVcontains(this)
p126
I00
sVcontains(home)
p127
I00
sVcontains(night)
p128
I00
sVcontains(into)
p129
I00
sVcontains(me)
p130
I00
sVcontains(have)
p131
I00
sVcontains(how)
p132
I01
sVcontains(your)
p133
I00
sVcontains(today)
p134
I00
sVcontains(break)
p135
I00
sVcontains(the)
p136
I00
sVcontains(mail)
p137
I00
sVcontains(morning)
p138
I00
sVcontains(coffee)
p139
I00
sVcontains(down)
p140
I00
sVcontains(next)
p141
I00
sVcontains(bring)
p142
I00
sVcontains(deliver)
p143
I00
sVcontains(paper)
p144
I00
sVcontains(to)
p145
I00
sVcontains(my)
p146
I00
sVcontains(office)
p147
I00
sVcontains(is)
p148
I00
sVcontains(a)
p149
I00
sVcontains(you)
p150
I00
sVcontains(cup)
p151
I00
sVcontains(see)
p152
I00
sVcontains(pencil)
p153
I00
sVcontains(and)
p154
I00
sVcontains(up)
p155
I00
sVcontains(door)
p156
I00
sVcontains(some)
p157
I00
sVcontains(hey)
p158
I00
sVcontains(i)
p159
I00
sVcontains(letter)
p160
I00
sVcontains(of)
p161
I00
sVcontains(later)
p162
I00
sVcontains(it)
p163
I01
sVcontains(off)
p164
I00
sVcontains(good)
p165
I00
sVcontains(over)
p166
I00
sVcontains(hello)
p167
I00
sVcontains(get)
p168
I00
sVcontains(day)
p169
I00
sVcontains(go)
p170
I00
sVcontains(what)
p171
I00
sVcontains(are)
p172
I00
sVcontains(365)
p173
I00
sVcontains(room)
p174
I00
sVcontains('s)
p175
I00
sVcontains(drop)
p176
I00
sVcontains(hall)
p177
I00
sg65
tp178
a((dp179
Vcontains(going)
p180
I00
sVcontains('m)
p181
I00
sVcontains(this)
p182
I00
sVcontains(home)
p183
I00
sVcontains(night)
p184
I00
sVcontains(into)
p185
I00
sVcontains(me)
p186
I00
sVcontains(have)
p187
I00
sVcontains(how)
p188
I01
sVcontains(your)
p189
I01
sVcontains(today)
p190
I00
sVcontains(break)
p191
I00
sVcontains(the)
p192
I00
sVcontains(mail)
p193
I00
sVcontains(morning)
p194
I00
sVcontains(coffee)
p195
I00
sVcontains(down)
p196
I00
sVcontains(next)
p197
I00
sVcontains(bring)
p198
I00
sVcontains(deliver)
p199
I00
sVcontains(paper)
p200
I00
sVcontains(to)
p201
I00
sVcontains(my)
p202
I00
sVcontains(office)
p203
I00
sVcontains(is)
p204
I01
sVcontains(a)
p205
I00
sVcontains(you)
p206
I00
sVcontains(cup)
p207
I00
sVcontains(see)
p208
I00
sVcontains(pencil)
p209
I00
sVcontains(and)
p210
I00
sVcontains(up)
p211
I00
sVcontains(door)
p212
I00
sVcontains(some)
p213
I00
sVcontains(hey)
p214
I01
sVcontains(i)
p215
I00
sVcontains(letter)
p216
I00
sVcontains(of)
p217
I00
sVcontains(later)
p218
I00
sVcontains(it)
p219
I00
sVcontains(off)
p220
I00
sVcontains(good)
p221
I00
sVcontains(over)
p222
I00
sVcontains(hello)
p223
I00
sVcontains(get)
p224
I00
sVcontains(day)
p225
I01
sVcontains(go)
p226
I00
sVcontains(what)
p227
I00
sVcontains(are)
p228
I00
sVcontains(365)
p229
I00
sVcontains(room)
p230
I00
sVcontains('s)
p231
I00
sVcontains(drop)
p232
I00
sVcontains(hall)
p233
I00
sg65
tp234
a((dp235
Vcontains(going)
p236
I00
sVcontains('m)
p237
I00
sVcontains(this)
p238
I00
sVcontains(home)
p239
I00
sVcontains(night)
p240
I00
sVcontains(into)
p241
I00
sVcontains(me)
p242
I00
sVcontains(have)
p243
I00
sVcontains(how)
p244
I00
sVcontains(your)
p245
I00
sVcontains(today)
p246
I00
sVcontains(break)
p247
I00
sVcontains(the)
p248
I00
sVcontains(mail)
p249
I00
sVcontains(morning)
p250
I01
sVcontains(coffee)
p251
I00
sVcontains(down)
p252
I00
sVcontains(next)
p253
I00
sVcontains(bring)
p254
I00
sVcontains(deliver)
p255
I00
sVcontains(paper)
p256
I00
sVcontains(to)
p257
I00
sVcontains(my)
p258
I00
sVcontains(office)
p259
I00
sVcontains(is)
p260
I00
sVcontains(a)
p261
I00
sVcontains(you)
p262
I00
sVcontains(cup)
p263
I00
sVcontains(see)
p264
I00
sVcontains(pencil)
p265
I00
sVcontains(and)
p266
I00
sVcontains(up)
p267
I00
sVcontains(door)
p268
I00
sVcontains(some)
p269
I00
sVcontains(hey)
p270
I00
sVcontains(i)
p271
I00
sVcontains(letter)
p272
I00
sVcontains(of)
p273
I00
sVcontains(later)
p274
I00
sVcontains(it)
p275
I00
sVcontains(off)
p276
I00
sVcontains(good)
p277
I01
sVcontains(over)
p278
I00
sVcontains(hello)
p279
I00
sVcontains(get)
p280
I00
sVcontains(day)
p281
I00
sVcontains(go)
p282
I00
sVcontains(what)
p283
I00
sVcontains(are)
p284
I00
sVcontains(365)
p285
I00
sVcontains(room)
p286
I00
sVcontains('s)
p287
I00
sVcontains(drop)
p288
I00
sVcontains(hall)
p289
I00
sg65
tp290
a((dp291
Vcontains(going)
p292
I00
sVcontains('m)
p293
I00
sVcontains(this)
p294
I00
sVcontains(home)
p295
I00
sVcontains(night)
p296
I01
sVcontains(into)
p297
I00
sVcontains(me)
p298
I00
sVcontains(have)
p299
I00
sVcontains(how)
p300
I00
sVcontains(your)
p301
I00
sVcontains(today)
p302
I00
sVcontains(break)
p303
I00
sVcontains(the)
p304
I00
sVcontains(mail)
p305
I00
sVcontains(morning)
p306
I00
sVcontains(coffee)
p307
I00
sVcontains(down)
p308
I00
sVcontains(next)
p309
I00
sVcontains(bring)
p310
I00
sVcontains(deliver)
p311
I00
sVcontains(paper)
p312
I00
sVcontains(to)
p313
I00
sVcontains(my)
p314
I00
sVcontains(office)
p315
I00
sVcontains(is)
p316
I00
sVcontains(a)
p317
I00
sVcontains(you)
p318
I00
sVcontains(cup)
p319
I00
sVcontains(see)
p320
I00
sVcontains(pencil)
p321
I00
sVcontains(and)
p322
I00
sVcontains(up)
p323
I00
sVcontains(door)
p324
I00
sVcontains(some)
p325
I00
sVcontains(hey)
p326
I00
sVcontains(i)
p327
I00
sVcontains(letter)
p328
I00
sVcontains(of)
p329
I00
sVcontains(later)
p330
I00
sVcontains(it)
p331
I00
sVcontains(off)
p332
I00
sVcontains(good)
p333
I01
sVcontains(over)
p334
I00
sVcontains(hello)
p335
I00
sVcontains(get)
p336
I00
sVcontains(day)
p337
I00
sVcontains(go)
p338
I00
sVcontains(what)
p339
I00
sVcontains(are)
p340
I00
sVcontains(365)
p341
I00
sVcontains(room)
p342
I00
sVcontains('s)
p343
I00
sVcontains(drop)
p344
I00
sVcontains(hall)
p345
I00
sS'exit'
p346
tp347
a((dp348
Vcontains(going)
p349
I01
sVcontains('m)
p350
I00
sVcontains(this)
p351
I00
sVcontains(home)
p352
I01
sVcontains(night)
p353
I00
sVcontains(into)
p354
I00
sVcontains(me)
p355
I00
sVcontains(have)
p356
I00
sVcontains(how)
p357
I00
sVcontains(your)
p358
I00
sVcontains(today)
p359
I00
sVcontains(break)
p360
I00
sVcontains(the)
p361
I00
sVcontains(mail)
p362
I00
sVcontains(morning)
p363
I00
sVcontains(coffee)
p364
I00
sVcontains(down)
p365
I00
sVcontains(next)
p366
I00
sVcontains(bring)
p367
I00
sVcontains(deliver)
p368
I00
sVcontains(paper)
p369
I00
sVcontains(to)
p370
I00
sVcontains(my)
p371
I00
sVcontains(office)
p372
I00
sVcontains(is)
p373
I00
sVcontains(a)
p374
I00
sVcontains(you)
p375
I00
sVcontains(cup)
p376
I00
sVcontains(see)
p377
I00
sVcontains(pencil)
p378
I00
sVcontains(and)
p379
I00
sVcontains(up)
p380
I00
sVcontains(door)
p381
I00
sVcontains(some)
p382
I00
sVcontains(hey)
p383
I00
sVcontains(i)
p384
I01
sVcontains(letter)
p385
I00
sVcontains(of)
p386
I00
sVcontains(later)
p387
I00
sVcontains(it)
p388
I00
sVcontains(off)
p389
I00
sVcontains(good)
p390
I00
sVcontains(over)
p391
I00
sVcontains(hello)
p392
I00
sVcontains(get)
p393
I00
sVcontains(day)
p394
I00
sVcontains(go)
p395
I00
sVcontains(what)
p396
I00
sVcontains(are)
p397
I00
sVcontains(365)
p398
I00
sVcontains(room)
p399
I00
sVcontains('s)
p400
I00
sVcontains(drop)
p401
I00
sVcontains(hall)
p402
I00
sg346
tp403
a((dp404
Vcontains(going)
p405
I00
sVcontains('m)
p406
I00
sVcontains(this)
p407
I00
sVcontains(home)
p408
I00
sVcontains(night)
p409
I00
sVcontains(into)
p410
I00
sVcontains(me)
p411
I00
sVcontains(have)
p412
I01
sVcontains(how)
p413
I00
sVcontains(your)
p414
I00
sVcontains(today)
p415
I00
sVcontains(break)
p416
I00
sVcontains(the)
p417
I00
sVcontains(mail)
p418
I00
sVcontains(morning)
p419
I00
sVcontains(coffee)
p420
I00
sVcontains(down)
p421
I00
sVcontains(next)
p422
I00
sVcontains(bring)
p423
I00
sVcontains(deliver)
p424
I00
sVcontains(paper)
p425
I00
sVcontains(to)
p426
I00
sVcontains(my)
p427
I00
sVcontains(office)
p428
I00
sVcontains(is)
p429
I00
sVcontains(a)
p430
I01
sVcontains(you)
p431
I00
sVcontains(cup)
p432
I00
sVcontains(see)
p433
I00
sVcontains(pencil)
p434
I00
sVcontains(and)
p435
I00
sVcontains(up)
p436
I00
sVcontains(door)
p437
I00
sVcontains(some)
p438
I00
sVcontains(hey)
p439
I00
sVcontains(i)
p440
I00
sVcontains(letter)
p441
I00
sVcontains(of)
p442
I00
sVcontains(later)
p443
I00
sVcontains(it)
p444
I00
sVcontains(off)
p445
I00
sVcontains(good)
p446
I01
sVcontains(over)
p447
I00
sVcontains(hello)
p448
I00
sVcontains(get)
p449
I00
sVcontains(day)
p450
I01
sVcontains(go)
p451
I00
sVcontains(what)
p452
I00
sVcontains(are)
p453
I00
sVcontains(365)
p454
I00
sVcontains(room)
p455
I00
sVcontains('s)
p456
I00
sVcontains(drop)
p457
I00
sVcontains(hall)
p458
I00
sg346
tp459
a((dp460
Vcontains(going)
p461
I00
sVcontains('m)
p462
I00
sVcontains(this)
p463
I00
sVcontains(home)
p464
I00
sVcontains(night)
p465
I00
sVcontains(into)
p466
I00
sVcontains(me)
p467
I00
sVcontains(have)
p468
I00
sVcontains(how)
p469
I00
sVcontains(your)
p470
I00
sVcontains(today)
p471
I00
sVcontains(break)
p472
I00
sVcontains(the)
p473
I00
sVcontains(mail)
p474
I00
sVcontains(morning)
p475
I00
sVcontains(coffee)
p476
I00
sVcontains(down)
p477
I00
sVcontains(next)
p478
I00
sVcontains(bring)
p479
I00
sVcontains(deliver)
p480
I00
sVcontains(paper)
p481
I00
sVcontains(to)
p482
I00
sVcontains(my)
p483
I00
sVcontains(office)
p484
I00
sVcontains(is)
p485
I00
sVcontains(a)
p486
I00
sVcontains(you)
p487
I01
sVcontains(cup)
p488
I00
sVcontains(see)
p489
I01
sVcontains(pencil)
p490
I00
sVcontains(and)
p491
I00
sVcontains(up)
p492
I00
sVcontains(door)
p493
I00
sVcontains(some)
p494
I00
sVcontains(hey)
p495
I00
sVcontains(i)
p496
I00
sVcontains(letter)
p497
I00
sVcontains(of)
p498
I00
sVcontains(later)
p499
I01
sVcontains(it)
p500
I00
sVcontains(off)
p501
I00
sVcontains(good)
p502
I00
sVcontains(over)
p503
I00
sVcontains(hello)
p504
I00
sVcontains(get)
p505
I00
sVcontains(day)
p506
I00
sVcontains(go)
p507
I00
sVcontains(what)
p508
I00
sVcontains(are)
p509
I00
sVcontains(365)
p510
I00
sVcontains(room)
p511
I00
sVcontains('s)
p512
I00
sVcontains(drop)
p513
I00
sVcontains(hall)
p514
I00
sg346
tp515
a((dp516
Vcontains(going)
p517
I00
sVcontains('m)
p518
I00
sVcontains(this)
p519
I00
sVcontains(home)
p520
I00
sVcontains(night)
p521
I00
sVcontains(into)
p522
I00
sVcontains(me)
p523
I01
sVcontains(have)
p524
I00
sVcontains(how)
p525
I00
sVcontains(your)
p526
I00
sVcontains(today)
p527
I00
sVcontains(break)
p528
I00
sVcontains(the)
p529
I00
sVcontains(mail)
p530
I00
sVcontains(morning)
p531
I00
sVcontains(coffee)
p532
I01
sVcontains(down)
p533
I00
sVcontains(next)
p534
I00
sVcontains(bring)
p535
I00
sVcontains(deliver)
p536
I00
sVcontains(paper)
p537
I00
sVcontains(to)
p538
I00
sVcontains(my)
p539
I00
sVcontains(office)
p540
I00
sVcontains(is)
p541
I00
sVcontains(a)
p542
I00
sVcontains(you)
p543
I00
sVcontains(cup)
p544
I00
sVcontains(see)
p545
I00
sVcontains(pencil)
p546
I00
sVcontains(and)
p547
I01
sVcontains(up)
p548
I00
sVcontains(door)
p549
I00
sVcontains(some)
p550
I01
sVcontains(hey)
p551
I00
sVcontains(i)
p552
I00
sVcontains(letter)
p553
I00
sVcontains(of)
p554
I00
sVcontains(later)
p555
I00
sVcontains(it)
p556
I00
sVcontains(off)
p557
I00
sVcontains(good)
p558
I00
sVcontains(over)
p559
I00
sVcontains(hello)
p560
I00
sVcontains(get)
p561
I01
sVcontains(day)
p562
I00
sVcontains(go)
p563
I01
sVcontains(what)
p564
I00
sVcontains(are)
p565
I00
sVcontains(365)
p566
I00
sVcontains(room)
p567
I00
sVcontains('s)
p568
I00
sVcontains(drop)
p569
I00
sVcontains(hall)
p570
I00
sS'get'
p571
tp572
a((dp573
Vcontains(going)
p574
I00
sVcontains('m)
p575
I00
sVcontains(this)
p576
I00
sVcontains(home)
p577
I00
sVcontains(night)
p578
I00
sVcontains(into)
p579
I00
sVcontains(me)
p580
I01
sVcontains(have)
p581
I00
sVcontains(how)
p582
I00
sVcontains(your)
p583
I00
sVcontains(today)
p584
I00
sVcontains(break)
p585
I00
sVcontains(the)
p586
I00
sVcontains(mail)
p587
I00
sVcontains(morning)
p588
I00
sVcontains(coffee)
p589
I00
sVcontains(down)
p590
I00
sVcontains(next)
p591
I00
sVcontains(bring)
p592
I00
sVcontains(deliver)
p593
I00
sVcontains(paper)
p594
I00
sVcontains(to)
p595
I00
sVcontains(my)
p596
I00
sVcontains(office)
p597
I00
sVcontains(is)
p598
I00
sVcontains(a)
p599
I01
sVcontains(you)
p600
I00
sVcontains(cup)
p601
I00
sVcontains(see)
p602
I00
sVcontains(pencil)
p603
I01
sVcontains(and)
p604
I01
sVcontains(up)
p605
I00
sVcontains(door)
p606
I00
sVcontains(some)
p607
I00
sVcontains(hey)
p608
I00
sVcontains(i)
p609
I00
sVcontains(letter)
p610
I00
sVcontains(of)
p611
I00
sVcontains(later)
p612
I00
sVcontains(it)
p613
I00
sVcontains(off)
p614
I00
sVcontains(good)
p615
I00
sVcontains(over)
p616
I00
sVcontains(hello)
p617
I00
sVcontains(get)
p618
I01
sVcontains(day)
p619
I00
sVcontains(go)
p620
I01
sVcontains(what)
p621
I00
sVcontains(are)
p622
I00
sVcontains(365)
p623
I00
sVcontains(room)
p624
I00
sVcontains('s)
p625
I00
sVcontains(drop)
p626
I00
sVcontains(hall)
p627
I00
sg571
tp628
a((dp629
Vcontains(going)
p630
I00
sVcontains('m)
p631
I00
sVcontains(this)
p632
I00
sVcontains(home)
p633
I00
sVcontains(night)
p634
I00
sVcontains(into)
p635
I00
sVcontains(me)
p636
I00
sVcontains(have)
p637
I00
sVcontains(how)
p638
I00
sVcontains(your)
p639
I00
sVcontains(today)
p640
I00
sVcontains(break)
p641
I01
sVcontains(the)
p642
I01
sVcontains(mail)
p643
I00
sVcontains(morning)
p644
I00
sVcontains(coffee)
p645
I01
sVcontains(down)
p646
I00
sVcontains(next)
p647
I00
sVcontains(bring)
p648
I00
sVcontains(deliver)
p649
I00
sVcontains(paper)
p650
I00
sVcontains(to)
p651
I01
sVcontains(my)
p652
I01
sVcontains(office)
p653
I00
sVcontains(is)
p654
I00
sVcontains(a)
p655
I00
sVcontains(you)
p656
I00
sVcontains(cup)
p657
I00
sVcontains(see)
p658
I00
sVcontains(pencil)
p659
I00
sVcontains(and)
p660
I01
sVcontains(up)
p661
I00
sVcontains(door)
p662
I00
sVcontains(some)
p663
I00
sVcontains(hey)
p664
I00
sVcontains(i)
p665
I00
sVcontains(letter)
p666
I00
sVcontains(of)
p667
I00
sVcontains(later)
p668
I00
sVcontains(it)
p669
I00
sVcontains(off)
p670
I00
sVcontains(good)
p671
I00
sVcontains(over)
p672
I00
sVcontains(hello)
p673
I00
sVcontains(get)
p674
I01
sVcontains(day)
p675
I00
sVcontains(go)
p676
I01
sVcontains(what)
p677
I00
sVcontains(are)
p678
I00
sVcontains(365)
p679
I00
sVcontains(room)
p680
I01
sVcontains('s)
p681
I00
sVcontains(drop)
p682
I00
sVcontains(hall)
p683
I00
sg571
tp684
a((dp685
Vcontains(going)
p686
I00
sVcontains('m)
p687
I00
sVcontains(this)
p688
I01
sVcontains(home)
p689
I00
sVcontains(night)
p690
I00
sVcontains(into)
p691
I00
sVcontains(me)
p692
I00
sVcontains(have)
p693
I00
sVcontains(how)
p694
I00
sVcontains(your)
p695
I00
sVcontains(today)
p696
I00
sVcontains(break)
p697
I00
sVcontains(the)
p698
I01
sVcontains(mail)
p699
I01
sVcontains(morning)
p700
I00
sVcontains(coffee)
p701
I00
sVcontains(down)
p702
I01
sVcontains(next)
p703
I00
sVcontains(bring)
p704
I00
sVcontains(deliver)
p705
I01
sVcontains(paper)
p706
I00
sVcontains(to)
p707
I01
sVcontains(my)
p708
I00
sVcontains(office)
p709
I00
sVcontains(is)
p710
I00
sVcontains(a)
p711
I00
sVcontains(you)
p712
I00
sVcontains(cup)
p713
I00
sVcontains(see)
p714
I00
sVcontains(pencil)
p715
I00
sVcontains(and)
p716
I01
sVcontains(up)
p717
I00
sVcontains(door)
p718
I00
sVcontains(some)
p719
I00
sVcontains(hey)
p720
I00
sVcontains(i)
p721
I00
sVcontains(letter)
p722
I00
sVcontains(of)
p723
I00
sVcontains(later)
p724
I00
sVcontains(it)
p725
I00
sVcontains(off)
p726
I00
sVcontains(good)
p727
I00
sVcontains(over)
p728
I00
sVcontains(hello)
p729
I00
sVcontains(get)
p730
I00
sVcontains(day)
p731
I00
sVcontains(go)
p732
I01
sVcontains(what)
p733
I00
sVcontains(are)
p734
I00
sVcontains(365)
p735
I00
sVcontains(room)
p736
I01
sVcontains('s)
p737
I00
sVcontains(drop)
p738
I00
sVcontains(hall)
p739
I01
sS'deliver'
p740
tp741
a((dp742
Vcontains(going)
p743
I00
sVcontains('m)
p744
I00
sVcontains(this)
p745
I01
sVcontains(home)
p746
I00
sVcontains(night)
p747
I00
sVcontains(into)
p748
I00
sVcontains(me)
p749
I00
sVcontains(have)
p750
I00
sVcontains(how)
p751
I00
sVcontains(your)
p752
I00
sVcontains(today)
p753
I00
sVcontains(break)
p754
I00
sVcontains(the)
p755
I00
sVcontains(mail)
p756
I00
sVcontains(morning)
p757
I00
sVcontains(coffee)
p758
I00
sVcontains(down)
p759
I00
sVcontains(next)
p760
I00
sVcontains(bring)
p761
I00
sVcontains(deliver)
p762
I00
sVcontains(paper)
p763
I01
sVcontains(to)
p764
I01
sVcontains(my)
p765
I01
sVcontains(office)
p766
I01
sVcontains(is)
p767
I00
sVcontains(a)
p768
I00
sVcontains(you)
p769
I00
sVcontains(cup)
p770
I00
sVcontains(see)
p771
I00
sVcontains(pencil)
p772
I00
sVcontains(and)
p773
I01
sVcontains(up)
p774
I00
sVcontains(door)
p775
I00
sVcontains(some)
p776
I00
sVcontains(hey)
p777
I00
sVcontains(i)
p778
I00
sVcontains(letter)
p779
I00
sVcontains(of)
p780
I00
sVcontains(later)
p781
I00
sVcontains(it)
p782
I00
sVcontains(off)
p783
I01
sVcontains(good)
p784
I00
sVcontains(over)
p785
I00
sVcontains(hello)
p786
I00
sVcontains(get)
p787
I00
sVcontains(day)
p788
I00
sVcontains(go)
p789
I01
sVcontains(what)
p790
I00
sVcontains(are)
p791
I00
sVcontains(365)
p792
I00
sVcontains(room)
p793
I00
sVcontains('s)
p794
I00
sVcontains(drop)
p795
I01
sVcontains(hall)
p796
I00
sg740
tp797
a((dp798
Vcontains(going)
p799
I00
sVcontains('m)
p800
I00
sVcontains(this)
p801
I01
sVcontains(home)
p802
I00
sVcontains(night)
p803
I00
sVcontains(into)
p804
I00
sVcontains(me)
p805
I00
sVcontains(have)
p806
I00
sVcontains(how)
p807
I00
sVcontains(your)
p808
I00
sVcontains(today)
p809
I00
sVcontains(break)
p810
I00
sVcontains(the)
p811
I01
sVcontains(mail)
p812
I00
sVcontains(morning)
p813
I00
sVcontains(coffee)
p814
I01
sVcontains(down)
p815
I01
sVcontains(next)
p816
I00
sVcontains(bring)
p817
I01
sVcontains(deliver)
p818
I00
sVcontains(paper)
p819
I00
sVcontains(to)
p820
I01
sVcontains(my)
p821
I01
sVcontains(office)
p822
I01
sVcontains(is)
p823
I00
sVcontains(a)
p824
I00
sVcontains(you)
p825
I00
sVcontains(cup)
p826
I01
sVcontains(see)
p827
I00
sVcontains(pencil)
p828
I00
sVcontains(and)
p829
I00
sVcontains(up)
p830
I00
sVcontains(door)
p831
I00
sVcontains(some)
p832
I00
sVcontains(hey)
p833
I00
sVcontains(i)
p834
I00
sVcontains(letter)
p835
I00
sVcontains(of)
p836
I01
sVcontains(later)
p837
I00
sVcontains(it)
p838
I00
sVcontains(off)
p839
I00
sVcontains(good)
p840
I00
sVcontains(over)
p841
I00
sVcontains(hello)
p842
I00
sVcontains(get)
p843
I00
sVcontains(day)
p844
I00
sVcontains(go)
p845
I00
sVcontains(what)
p846
I00
sVcontains(are)
p847
I00
sVcontains(365)
p848
I00
sVcontains(room)
p849
I00
sVcontains('s)
p850
I00
sVcontains(drop)
p851
I00
sVcontains(hall)
p852
I01
sg740
tp853
a((dp854
Vcontains(going)
p855
I00
sVcontains('m)
p856
I00
sVcontains(this)
p857
I01
sVcontains(home)
p858
I00
sVcontains(night)
p859
I00
sVcontains(into)
p860
I00
sVcontains(me)
p861
I00
sVcontains(have)
p862
I00
sVcontains(how)
p863
I00
sVcontains(your)
p864
I00
sVcontains(today)
p865
I00
sVcontains(break)
p866
I00
sVcontains(the)
p867
I01
sVcontains(mail)
p868
I01
sVcontains(morning)
p869
I00
sVcontains(coffee)
p870
I00
sVcontains(down)
p871
I01
sVcontains(next)
p872
I00
sVcontains(bring)
p873
I01
sVcontains(deliver)
p874
I00
sVcontains(paper)
p875
I00
sVcontains(to)
p876
I01
sVcontains(my)
p877
I00
sVcontains(office)
p878
I00
sVcontains(is)
p879
I00
sVcontains(a)
p880
I00
sVcontains(you)
p881
I00
sVcontains(cup)
p882
I00
sVcontains(see)
p883
I00
sVcontains(pencil)
p884
I00
sVcontains(and)
p885
I00
sVcontains(up)
p886
I00
sVcontains(door)
p887
I00
sVcontains(some)
p888
I00
sVcontains(hey)
p889
I00
sVcontains(i)
p890
I00
sVcontains(letter)
p891
I01
sVcontains(of)
p892
I00
sVcontains(later)
p893
I00
sVcontains(it)
p894
I00
sVcontains(off)
p895
I00
sVcontains(good)
p896
I00
sVcontains(over)
p897
I00
sVcontains(hello)
p898
I00
sVcontains(get)
p899
I00
sVcontains(day)
p900
I00
sVcontains(go)
p901
I00
sVcontains(what)
p902
I00
sVcontains(are)
p903
I00
sVcontains(365)
p904
I00
sVcontains(room)
p905
I01
sVcontains('s)
p906
I00
sVcontains(drop)
p907
I00
sVcontains(hall)
p908
I01
sg740
tp909
a((dp910
Vcontains(going)
p911
I00
sVcontains('m)
p912
I00
sVcontains(this)
p913
I01
sVcontains(home)
p914
I00
sVcontains(night)
p915
I00
sVcontains(into)
p916
I00
sVcontains(me)
p917
I00
sVcontains(have)
p918
I00
sVcontains(how)
p919
I00
sVcontains(your)
p920
I00
sVcontains(today)
p921
I00
sVcontains(break)
p922
I00
sVcontains(the)
p923
I00
sVcontains(mail)
p924
I00
sVcontains(morning)
p925
I00
sVcontains(coffee)
p926
I00
sVcontains(down)
p927
I00
sVcontains(next)
p928
I00
sVcontains(bring)
p929
I00
sVcontains(deliver)
p930
I01
sVcontains(paper)
p931
I00
sVcontains(to)
p932
I01
sVcontains(my)
p933
I00
sVcontains(office)
p934
I00
sVcontains(is)
p935
I00
sVcontains(a)
p936
I00
sVcontains(you)
p937
I00
sVcontains(cup)
p938
I00
sVcontains(see)
p939
I00
sVcontains(pencil)
p940
I00
sVcontains(and)
p941
I00
sVcontains(up)
p942
I00
sVcontains(door)
p943
I00
sVcontains(some)
p944
I00
sVcontains(hey)
p945
I00
sVcontains(i)
p946
I00
sVcontains(letter)
p947
I01
sVcontains(of)
p948
I00
sVcontains(later)
p949
I00
sVcontains(it)
p950
I00
sVcontains(off)
p951
I00
sVcontains(good)
p952
I00
sVcontains(over)
p953
I00
sVcontains(hello)
p954
I00
sVcontains(get)
p955
I00
sVcontains(day)
p956
I00
sVcontains(go)
p957
I00
sVcontains(what)
p958
I00
sVcontains(are)
p959
I00
sVcontains(365)
p960
I01
sVcontains(room)
p961
I01
sVcontains('s)
p962
I00
sVcontains(drop)
p963
I00
sVcontains(hall)
p964
I00
sg740
tp965
a((dp966
Vcontains(going)
p967
I00
sVcontains('m)
p968
I00
sVcontains(this)
p969
I00
sVcontains(home)
p970
I00
sVcontains(night)
p971
I00
sVcontains(into)
p972
I00
sVcontains(me)
p973
I00
sVcontains(have)
p974
I00
sVcontains(how)
p975
I00
sVcontains(your)
p976
I00
sVcontains(today)
p977
I00
sVcontains(break)
p978
I01
sVcontains(the)
p979
I01
sVcontains(mail)
p980
I00
sVcontains(morning)
p981
I00
sVcontains(coffee)
p982
I00
sVcontains(down)
p983
I00
sVcontains(next)
p984
I00
sVcontains(bring)
p985
I00
sVcontains(deliver)
p986
I00
sVcontains(paper)
p987
I00
sVcontains(to)
p988
I01
sVcontains(my)
p989
I00
sVcontains(office)
p990
I00
sVcontains(is)
p991
I00
sVcontains(a)
p992
I00
sVcontains(you)
p993
I00
sVcontains(cup)
p994
I00
sVcontains(see)
p995
I00
sVcontains(pencil)
p996
I00
sVcontains(and)
p997
I00
sVcontains(up)
p998
I00
sVcontains(door)
p999
I00
sVcontains(some)
p1000
I00
sVcontains(hey)
p1001
I00
sVcontains(i)
p1002
I00
sVcontains(letter)
p1003
I00
sVcontains(of)
p1004
I00
sVcontains(later)
p1005
I00
sVcontains(it)
p1006
I00
sVcontains(off)
p1007
I00
sVcontains(good)
p1008
I00
sVcontains(over)
p1009
I01
sVcontains(hello)
p1010
I00
sVcontains(get)
p1011
I00
sVcontains(day)
p1012
I00
sVcontains(go)
p1013
I01
sVcontains(what)
p1014
I00
sVcontains(are)
p1015
I00
sVcontains(365)
p1016
I00
sVcontains(room)
p1017
I01
sVcontains('s)
p1018
I00
sVcontains(drop)
p1019
I00
sVcontains(hall)
p1020
I00
sS'go'
p1021
tp1022
a((dp1023
Vcontains(going)
p1024
I00
sVcontains('m)
p1025
I00
sVcontains(this)
p1026
I00
sVcontains(home)
p1027
I00
sVcontains(night)
p1028
I00
sVcontains(into)
p1029
I00
sVcontains(me)
p1030
I00
sVcontains(have)
p1031
I00
sVcontains(how)
p1032
I00
sVcontains(your)
p1033
I00
sVcontains(today)
p1034
I00
sVcontains(break)
p1035
I00
sVcontains(the)
p1036
I01
sVcontains(mail)
p1037
I00
sVcontains(morning)
p1038
I00
sVcontains(coffee)
p1039
I00
sVcontains(down)
p1040
I01
sVcontains(next)
p1041
I00
sVcontains(bring)
p1042
I00
sVcontains(deliver)
p1043
I00
sVcontains(paper)
p1044
I00
sVcontains(to)
p1045
I00
sVcontains(my)
p1046
I00
sVcontains(office)
p1047
I00
sVcontains(is)
p1048
I00
sVcontains(a)
p1049
I00
sVcontains(you)
p1050
I00
sVcontains(cup)
p1051
I00
sVcontains(see)
p1052
I00
sVcontains(pencil)
p1053
I00
sVcontains(and)
p1054
I00
sVcontains(up)
p1055
I00
sVcontains(door)
p1056
I00
sVcontains(some)
p1057
I00
sVcontains(hey)
p1058
I00
sVcontains(i)
p1059
I00
sVcontains(letter)
p1060
I00
sVcontains(of)
p1061
I00
sVcontains(later)
p1062
I00
sVcontains(it)
p1063
I00
sVcontains(off)
p1064
I00
sVcontains(good)
p1065
I00
sVcontains(over)
p1066
I00
sVcontains(hello)
p1067
I00
sVcontains(get)
p1068
I00
sVcontains(day)
p1069
I00
sVcontains(go)
p1070
I01
sVcontains(what)
p1071
I00
sVcontains(are)
p1072
I00
sVcontains(365)
p1073
I00
sVcontains(room)
p1074
I00
sVcontains('s)
p1075
I00
sVcontains(drop)
p1076
I00
sVcontains(hall)
p1077
I01
sg1021
tp1078
a((dp1079
Vcontains(going)
p1080
I00
sVcontains('m)
p1081
I00
sVcontains(this)
p1082
I00
sVcontains(home)
p1083
I00
sVcontains(night)
p1084
I00
sVcontains(into)
p1085
I01
sVcontains(me)
p1086
I00
sVcontains(have)
p1087
I00
sVcontains(how)
p1088
I00
sVcontains(your)
p1089
I00
sVcontains(today)
p1090
I00
sVcontains(break)
p1091
I00
sVcontains(the)
p1092
I01
sVcontains(mail)
p1093
I00
sVcontains(morning)
p1094
I00
sVcontains(coffee)
p1095
I00
sVcontains(down)
p1096
I00
sVcontains(next)
p1097
I01
sVcontains(bring)
p1098
I00
sVcontains(deliver)
p1099
I00
sVcontains(paper)
p1100
I00
sVcontains(to)
p1101
I00
sVcontains(my)
p1102
I00
sVcontains(office)
p1103
I00
sVcontains(is)
p1104
I00
sVcontains(a)
p1105
I00
sVcontains(you)
p1106
I00
sVcontains(cup)
p1107
I00
sVcontains(see)
p1108
I00
sVcontains(pencil)
p1109
I00
sVcontains(and)
p1110
I00
sVcontains(up)
p1111
I00
sVcontains(door)
p1112
I01
sVcontains(some)
p1113
I00
sVcontains(hey)
p1114
I00
sVcontains(i)
p1115
I00
sVcontains(letter)
p1116
I00
sVcontains(of)
p1117
I00
sVcontains(later)
p1118
I00
sVcontains(it)
p1119
I00
sVcontains(off)
p1120
I00
sVcontains(good)
p1121
I00
sVcontains(over)
p1122
I00
sVcontains(hello)
p1123
I00
sVcontains(get)
p1124
I00
sVcontains(day)
p1125
I00
sVcontains(go)
p1126
I01
sVcontains(what)
p1127
I00
sVcontains(are)
p1128
I00
sVcontains(365)
p1129
I00
sVcontains(room)
p1130
I01
sVcontains('s)
p1131
I00
sVcontains(drop)
p1132
I00
sVcontains(hall)
p1133
I00
sg1021
tp1134
a((dp1135
Vcontains(going)
p1136
I00
sVcontains('m)
p1137
I00
sVcontains(this)
p1138
I00
sVcontains(home)
p1139
I00
sVcontains(night)
p1140
I00
sVcontains(into)
p1141
I00
sVcontains(me)
p1142
I00
sVcontains(have)
p1143
I00
sVcontains(how)
p1144
I00
sVcontains(your)
p1145
I00
sVcontains(today)
p1146
I00
sVcontains(break)
p1147
I00
sVcontains(the)
p1148
I00
sVcontains(mail)
p1149
I00
sVcontains(morning)
p1150
I00
sVcontains(coffee)
p1151
I00
sVcontains(down)
p1152
I00
sVcontains(next)
p1153
I00
sVcontains(bring)
p1154
I00
sVcontains(deliver)
p1155
I00
sVcontains(paper)
p1156
I00
sVcontains(to)
p1157
I00
sVcontains(my)
p1158
I00
sVcontains(office)
p1159
I00
sVcontains(is)
p1160
I00
sVcontains(a)
p1161
I00
sVcontains(you)
p1162
I00
sVcontains(cup)
p1163
I00
sVcontains(see)
p1164
I00
sVcontains(pencil)
p1165
I00
sVcontains(and)
p1166
I00
sVcontains(up)
p1167
I00
sVcontains(door)
p1168
I00
sVcontains(some)
p1169
I00
sVcontains(hey)
p1170
I00
sVcontains(i)
p1171
I00
sVcontains(letter)
p1172
I00
sVcontains(of)
p1173
I00
sVcontains(later)
p1174
I00
sVcontains(it)
p1175
I00
sVcontains(off)
p1176
I00
sVcontains(good)
p1177
I00
sVcontains(over)
p1178
I00
sVcontains(hello)
p1179
I01
sVcontains(get)
p1180
I00
sVcontains(day)
p1181
I00
sVcontains(go)
p1182
I00
sVcontains(what)
p1183
I00
sVcontains(are)
p1184
I00
sVcontains(365)
p1185
I00
sVcontains(room)
p1186
I00
sVcontains('s)
p1187
I00
sVcontains(drop)
p1188
I00
sVcontains(hall)
p1189
I00
sg65
tp1190
a((dp1191
Vcontains(going)
p1192
I00
sVcontains('m)
p1193
I00
sVcontains(this)
p1194
I00
sVcontains(home)
p1195
I00
sVcontains(night)
p1196
I00
sVcontains(into)
p1197
I00
sVcontains(me)
p1198
I00
sVcontains(have)
p1199
I00
sVcontains(how)
p1200
I00
sVcontains(your)
p1201
I00
sVcontains(today)
p1202
I00
sVcontains(break)
p1203
I00
sVcontains(the)
p1204
I00
sVcontains(mail)
p1205
I00
sVcontains(morning)
p1206
I00
sVcontains(coffee)
p1207
I00
sVcontains(down)
p1208
I00
sVcontains(next)
p1209
I00
sVcontains(bring)
p1210
I00
sVcontains(deliver)
p1211
I00
sVcontains(paper)
p1212
I00
sVcontains(to)
p1213
I00
sVcontains(my)
p1214
I00
sVcontains(office)
p1215
I00
sVcontains(is)
p1216
I00
sVcontains(a)
p1217
I00
sVcontains(you)
p1218
I00
sVcontains(cup)
p1219
I00
sVcontains(see)
p1220
I00
sVcontains(pencil)
p1221
I00
sVcontains(and)
p1222
I00
sVcontains(up)
p1223
I00
sVcontains(door)
p1224
I00
sVcontains(some)
p1225
I00
sVcontains(hey)
p1226
I00
sVcontains(i)
p1227
I00
sVcontains(letter)
p1228
I00
sVcontains(of)
p1229
I00
sVcontains(later)
p1230
I00
sVcontains(it)
p1231
I00
sVcontains(off)
p1232
I00
sVcontains(good)
p1233
I00
sVcontains(over)
p1234
I00
sVcontains(hello)
p1235
I01
sVcontains(get)
p1236
I00
sVcontains(day)
p1237
I00
sVcontains(go)
p1238
I00
sVcontains(what)
p1239
I00
sVcontains(are)
p1240
I00
sVcontains(365)
p1241
I00
sVcontains(room)
p1242
I00
sVcontains('s)
p1243
I00
sVcontains(drop)
p1244
I00
sVcontains(hall)
p1245
I00
sg65
tp1246
a((dp1247
Vcontains(going)
p1248
I00
sVcontains('m)
p1249
I00
sVcontains(this)
p1250
I00
sVcontains(home)
p1251
I00
sVcontains(night)
p1252
I00
sVcontains(into)
p1253
I00
sVcontains(me)
p1254
I00
sVcontains(have)
p1255
I00
sVcontains(how)
p1256
I00
sVcontains(your)
p1257
I00
sVcontains(today)
p1258
I00
sVcontains(break)
p1259
I00
sVcontains(the)
p1260
I00
sVcontains(mail)
p1261
I00
sVcontains(morning)
p1262
I00
sVcontains(coffee)
p1263
I00
sVcontains(down)
p1264
I00
sVcontains(next)
p1265
I00
sVcontains(bring)
p1266
I00
sVcontains(deliver)
p1267
I00
sVcontains(paper)
p1268
I00
sVcontains(to)
p1269
I00
sVcontains(my)
p1270
I00
sVcontains(office)
p1271
I00
sVcontains(is)
p1272
I00
sVcontains(a)
p1273
I00
sVcontains(you)
p1274
I00
sVcontains(cup)
p1275
I00
sVcontains(see)
p1276
I00
sVcontains(pencil)
p1277
I00
sVcontains(and)
p1278
I00
sVcontains(up)
p1279
I00
sVcontains(door)
p1280
I00
sVcontains(some)
p1281
I00
sVcontains(hey)
p1282
I00
sVcontains(i)
p1283
I00
sVcontains(letter)
p1284
I00
sVcontains(of)
p1285
I00
sVcontains(later)
p1286
I00
sVcontains(it)
p1287
I00
sVcontains(off)
p1288
I00
sVcontains(good)
p1289
I00
sVcontains(over)
p1290
I00
sVcontains(hello)
p1291
I01
sVcontains(get)
p1292
I00
sVcontains(day)
p1293
I00
sVcontains(go)
p1294
I00
sVcontains(what)
p1295
I00
sVcontains(are)
p1296
I00
sVcontains(365)
p1297
I00
sVcontains(room)
p1298
I00
sVcontains('s)
p1299
I00
sVcontains(drop)
p1300
I00
sVcontains(hall)
p1301
I00
sg65
tp1302
asS'train_set'
p1303
(lp1304
(S'hello how are you today'
g65
tp1305
a(S"what's up"
g65
tp1306
a(S"how's it going?"
g65
tp1307
a(S'hey how is your day'
g65
tp1308
a(S'good morning'
g65
tp1309
a(S'good night'
g346
tp1310
a(S"i'm going home"
g346
tp1311
a(S'have a good day'
g346
tp1312
a(S'see you later'
g346
tp1313
a(S'go and get me some coffee'
g571
tp1314
a(S'go and get me a pencil'
g571
tp1315
a(S'go to the break room and get my coffee'
g571
tp1316
a(S'go down the hall and deliver this to the mail room'
g740
tp1317
a(S'go to my office and drop off this paper'
g740
tp1318
a(S'bring this cup of coffee down the hall to my office'
g740
tp1319
a(S'bring this letter to the mail room down the hall'
g740
tp1320
a(S'deliver this letter to room 365'
g740
tp1321
a(S'go over to the break room'
g1021
tp1322
a(S'go down the hall'
g1021
tp1323
a(S'go into the room next door'
g1021
tp1324
a(S'hello'
g65
tp1325
a(S'hello'
g65
tp1326
a(S'hello'
p1327
g65
tp1328
asS'feature_extractor'
p1329
ctextblob.classifiers
basic_extractor
p1330
sS'classifier'
p1331
g1
(cnltk.classify.naivebayes
NaiveBayesClassifier
p1332
g3
NtRp1333
(dp1334
S'_labels'
p1335
(lp1336
g1021
ag740
ag346
ag65
ag571
asS'_feature_probdist'
p1337
(dp1338
(g346
g301
tp1339
g1
(cnltk.probability
ELEProbDist
p1340
g3
NtRp1341
(dp1342
S'_gamma'
p1343
F0.5
sS'_N'
p1344
I4
sS'_freqdist'
p1345
cnltk.probability
FreqDist
p1346
((dp1347
I00
I4
stRp1348
sS'_bins'
p1349
I2
sS'_divisor'
p1350
F5
sbs(g65
g19
tp1351
g1
(g1340
g3
NtRp1352
(dp1353
g1343
F0.5
sg1344
I8
sg1345
g1346
((dp1354
I00
I5
sI01
I3
stRp1355
sg1349
I2
sg1350
F9
sbs(g740
g691
tp1356
g1
(g1340
g3
NtRp1357
(dp1358
g1343
F0.5
sg1344
I5
sg1345
g1346
((dp1359
I00
I5
stRp1360
sg1349
I2
sg1350
F6
sbs(g740
g699
tp1361
g1
(g1340
g3
NtRp1362
(dp1363
g1343
F0.5
sg1344
I5
sg1345
g1346
((dp1364
I00
I3
sI01
I2
stRp1365
sg1349
I2
sg1350
F6
sbs(g65
g48
tp1366
g1
(g1340
g3
NtRp1367
(dp1368
g1343
F0.5
sg1344
I8
sg1345
g1346
((dp1369
I00
I8
stRp1370
sg1349
I2
sg1350
F9
sbs(g1021
g981
tp1371
g1
(g1340
g3
NtRp1372
(dp1373
g1343
F0.5
sg1344
I3
sg1345
g1346
((dp1374
I00
I3
stRp1375
sg1349
I2
sg1350
F4
sbs(g740
g701
tp1376
g1
(g1340
g3
NtRp1377
(dp1378
g1343
F0.5
sg1344
I5
sg1345
g1346
((dp1379
I00
I4
sI01
I1
stRp1380
sg1349
I2
sg1350
F6
sbs(g740
g693
tp1381
g1
(g1340
g3
NtRp1382
(dp1383
g1343
F0.5
sg1344
I5
sg1345
g1346
((dp1384
I00
I5
stRp1385
sg1349
I2
sg1350
F6
sbs(g740
g726
tp1386
g1
(g1340
g3
NtRp1387
(dp1388
g1343
F0.5
sg1344
I5
sg1345
g1346
((dp1389
I00
I4
sI01
I1
stRp1390
sg1349
I2
sg1350
F6
sbs(g346
g319
tp1391
g1
(g1340
g3
NtRp1392
(dp1393
g1343
F0.5
sg1344
I4
sg1345
g1346
((dp1394
I00
I4
stRp1395
sg1349
I2
sg1350
F5
sbs(g346
g337
tp1396
g1
(g1340
g3
NtRp1397
(dp1398
g1343
F0.5
sg1344
I4
sg1345
g1346
((dp1399
I00
I3
sI01
I1
stRp1400
sg1349
I2
sg1350
F5
sbs(g1021
g1013
tp1401
g1
(g1340
g3
NtRp1402
(dp1403
g1343
F0.5
sg1344
I3
sg1345
g1346
((dp1404
I01
I3
stRp1405
sg1349
I2
sg1350
F4
sbs(g346
g333
tp1406
g1
(g1340
g3
NtRp1407
(dp1408
g1343
F0.5
sg1344
I4
sg1345
g1346
((dp1409
I00
I2
sI01
I2
stRp1410
sg1349
I2
sg1350
F5
sbs(g1021
g996
tp1411
g1
(g1340
g3
NtRp1412
(dp1413
g1343
F0.5
sg1344
I3
sg1345
g1346
((dp1414
I00
I3
stRp1415
sg1349
I2
sg1350
F4
sbs(g346
g317
tp1416
g1
(g1340
g3
NtRp1417
(dp1418
g1343
F0.5
sg1344
I4
sg1345
g1346
((dp1419
I00
I3
sI01
I1
stRp1420
sg1349
I2
sg1350
F5
sbs(g571
g523
tp1421
g1
(g1340
g3
NtRp1422
(dp1423
g1343
F0.5
sg1344
I3
sg1345
g1346
((dp1424
I00
I1
sI01
I2
stRp1425
sg1349
I2
sg1350
F4
sbs(g571
g541
tp1426
g1
(g1340
g3
NtRp1427
(dp1428
g1343
F0.5
sg1344
I3
sg1345
g1346
((dp1429
I00
I3
stRp1430
sg1349
I2
sg1350
F4
sbs(g740
g710
tp1431
g1
(g1340
g3
NtRp1432
(dp1433
g1343
F0.5
sg1344
I5
sg1345
g1346
((dp1434
I00
I5
stRp1435
sg1349
I2
sg1350
F6
sbs(g65
g13
tp1436
g1
(g1340
g3
NtRp1437
(dp1438
g1343
F0.5
sg1344
I8
sg1345
g1346
((dp1439
I00
I8
stRp1440
sg1349
I2
sg1350
F9
sbs(g740
g724
tp1441
g1
(g1340
g3
NtRp1442
(dp1443
g1343
F0.5
sg1344
I5
sg1345
g1346
((dp1444
I00
I5
stRp1445
sg1349
I2
sg1350
F6
sbs(g1021
g974
tp1446
g1
(g1340
g3
NtRp1447
(dp1448
g1343
F0.5
sg1344
I3
sg1345
g1346
((dp1449
I00
I3
stRp1450
sg1349
I2
sg1350
F4
sbs(g346
g320
tp1451
g1
(g1340
g3
NtRp1452
(dp1453
g1343
F0.5
sg1344
I4
sg1345
g1346
((dp1454
I00
I3
sI01
I1
stRp1455
sg1349
I2
sg1350
F5
sbs(g740
g696
tp1456
g1
(g1340
g3
NtRp1457
(dp1458
g1343
F0.5
sg1344
I5
sg1345
g1346
((dp1459
I00
I5
stRp1460
sg1349
I2
sg1350
F6
sbs(g571
g517
tp1461
g1
(g1340
g3
NtRp1462
(dp1463
g1343
F0.5
sg1344
I3
sg1345
g1346
((dp1464
I00
I3
stRp1465
sg1349
I2
sg1350
F4
sbs(g740
g706
tp1466
g1
(g1340
g3
NtRp1467
(dp1468
g1343
F0.5
sg1344
I5
sg1345
g1346
((dp1469
I00
I4
sI01
I1
stRp1470
sg1349
I2
sg1350
F6
sbs(g65
g25
tp1471
g1
(g1340
g3
NtRp1472
(dp1473
g1343
F0.5
sg1344
I8
sg1345
g1346
((dp1474
I00
I7
sI01
I1
stRp1475
sg1349
I2
sg1350
F9
sbs(g740
g736
tp1476
g1
(g1340
g3
NtRp1477
(dp1478
g1343
F0.5
sg1344
I5
sg1345
g1346
((dp1479
I00
I2
sI01
I3
stRp1480
sg1349
I2
sg1350
F6
sbs(g65
g32
tp1481
g1
(g1340
g3
NtRp1482
(dp1483
g1343
F0.5
sg1344
I8
sg1345
g1346
((dp1484
I00
I8
stRp1485
sg1349
I2
sg1350
F9
sbs(g571
g548
tp1486
g1
(g1340
g3
NtRp1487
(dp1488
g1343
F0.5
sg1344
I3
sg1345
g1346
((dp1489
I00
I3
stRp1490
sg1349
I2
sg1350
F4
sbs(g1021
g986
tp1491
g1
(g1340
g3
NtRp1492
(dp1493
g1343
F0.5
sg1344
I3
sg1345
g1346
((dp1494
I00
I3
stRp1495
sg1349
I2
sg1350
F4
sbs(g65
g41
tp1496
g1
(g1340
g3
NtRp1497
(dp1498
g1343
F0.5
sg1344
I8
sg1345
g1346
((dp1499
I00
I8
stRp1500
sg1349
I2
sg1350
F9
sbs(g571
g545
tp1501
g1
(g1340
g3
NtRp1502
(dp1503
g1343
F0.5
sg1344
I3
sg1345
g1346
((dp1504
I00
I3
stRp1505
sg1349
I2
sg1350
F4
sbs(g740
g714
tp1506
g1
(g1340
g3
NtRp1507
(dp1508
g1343
F0.5
sg1344
I5
sg1345
g1346
((dp1509
I00
I5
stRp1510
sg1349
I2
sg1350
F6
sbs(g740
g695
tp1511
g1
(g1340
g3
NtRp1512
(dp1513
g1343
F0.5
sg1344
I5
sg1345
g1346
((dp1514
I00
I5
stRp1515
sg1349
I2
sg1350
F6
sbs(g65
g40
tp1516
g1
(g1340
g3
NtRp1517
(dp1518
g1343
F0.5
sg1344
I8
sg1345
g1346
((dp1519
I00
I8
stRp1520
sg1349
I2
sg1350
F9
sbs(g1021
g988
tp1521
g1
(g1340
g3
NtRp1522
(dp1523
g1343
F0.5
sg1344
I3
sg1345
g1346
((dp1524
I00
I2
sI01
I1
stRp1525
sg1349
I2
sg1350
F4
sbs(g346
g331
tp1526
g1
(g1340
g3
NtRp1527
(dp1528
g1343
F0.5
sg1344
I4
sg1345
g1346
((dp1529
I00
I4
stRp1530
sg1349
I2
sg1350
F5
sbs(g571
g561
tp1531
g1
(g1340
g3
NtRp1532
(dp1533
g1343
F0.5
sg1344
I3
sg1345
g1346
((dp1534
I01
I3
stRp1535
sg1349
I2
sg1350
F4
sbs(g346
g309
tp1536
g1
(g1340
g3
NtRp1537
(dp1538
g1343
F0.5
sg1344
I4
sg1345
g1346
((dp1539
I00
I4
stRp1540
sg1349
I2
sg1350
F5
sbs(g65
g11
tp1541
g1
(g1340
g3
NtRp1542
(dp1543
g1343
F0.5
sg1344
I8
sg1345
g1346
((dp1544
I00
I7
sI01
I1
stRp1545
sg1349
I2
sg1350
F9
sbs(g1021
g1017
tp1546
g1
(g1340
g3
NtRp1547
(dp1548
g1343
F0.5
sg1344
I3
sg1345
g1346
((dp1549
I00
I1
sI01
I2
stRp1550
sg1349
I2
sg1350
F4
sbs(g65
g14
tp1551
g1
(g1340
g3
NtRp1552
(dp1553
g1343
F0.5
sg1344
I8
sg1345
g1346
((dp1554
I00
I8
stRp1555
sg1349
I2
sg1350
F9
sbs(g65
g16
tp1556
g1
(g1340
g3
NtRp1557
(dp1558
g1343
F0.5
sg1344
I8
sg1345
g1346
((dp1559
I00
I8
stRp1560
sg1349
I2
sg1350
F9
sbs(g65
g51
tp1561
g1
(g1340
g3
NtRp1562
(dp1563
g1343
F0.5
sg1344
I8
sg1345
g1346
((dp1564
I00
I8
stRp1565
sg1349
I2
sg1350
F9
sbs(g65
g59
tp1566
g1
(g1340
g3
NtRp1567
(dp1568
g1343
F0.5
sg1344
I8
sg1345
g1346
((dp1569
I00
I7
sI01
I1
stRp1570
sg1349
I2
sg1350
F9
sbs(g1021
g977
tp1571
g1
(g1340
g3
NtRp1572
(dp1573
g1343
F0.5
sg1344
I3
sg1345
g1346
((dp1574
I00
I3
stRp1575
sg1349
I2
sg1350
F4
sbs(g65
g47
tp1576
g1
(g1340
g3
NtRp1577
(dp1578
g1343
F0.5
sg1344
I8
sg1345
g1346
((dp1579
I00
I8
stRp1580
sg1349
I2
sg1350
F9
sbs(g65
g18
tp1581
g1
(g1340
g3
NtRp1582
(dp1583
g1343
F0.5
sg1344
I8
sg1345
g1346
((dp1584
I00
I8
stRp1585
sg1349
I2
sg1350
F9
sbs(g740
g709
tp1586
g1
(g1340
g3
NtRp1587
(dp1588
g1343
F0.5
sg1344
I5
sg1345
g1346
((dp1589
I00
I3
sI01
I2
stRp1590
sg1349
I2
sg1350
F6
sbs(g65
g17
tp1591
g1
(g1340
g3
NtRp1592
(dp1593
g1343
F0.5
sg1344
I8
sg1345
g1346
((dp1594
I00
I8
stRp1595
sg1349
I2
sg1350
F9
sbs(g571
g566
tp1596
g1
(g1340
g3
NtRp1597
(dp1598
g1343
F0.5
sg1344
I3
sg1345
g1346
((dp1599
I00
I3
stRp1600
sg1349
I2
sg1350
F4
sbs(g346
g322
tp1601
g1
(g1340
g3
NtRp1602
(dp1603
g1343
F0.5
sg1344
I4
sg1345
g1346
((dp1604
I00
I4
stRp1605
sg1349
I2
sg1350
F5
sbs(g346
g338
tp1606
g1
(g1340
g3
NtRp1607
(dp1608
g1343
F0.5
sg1344
I4
sg1345
g1346
((dp1609
I00
I4
stRp1610
sg1349
I2
sg1350
F5
sbs(g65
g15
tp1611
g1
(g1340
g3
NtRp1612
(dp1613
g1343
F0.5
sg1344
I8
sg1345
g1346
((dp1614
I00
I8
stRp1615
sg1349
I2
sg1350
F9
sbs(g740
g707
tp1616
g1
(g1340
g3
NtRp1617
(dp1618
g1343
F0.5
sg1344
I5
sg1345
g1346
((dp1619
I01
I5
stRp1620
sg1349
I2
sg1350
F6
sbs(g346
g304
tp1621
g1
(g1340
g3
NtRp1622
(dp1623
g1343
F0.5
sg1344
I4
sg1345
g1346
((dp1624
I00
I4
stRp1625
sg1349
I2
sg1350
F5
sbs(g740
g729
tp1626
g1
(g1340
g3
NtRp1627
(dp1628
g1343
F0.5
sg1344
I5
sg1345
g1346
((dp1629
I00
I5
stRp1630
sg1349
I2
sg1350
F6
sbs(g65
g21
tp1631
g1
(g1340
g3
NtRp1632
(dp1633
g1343
F0.5
sg1344
I8
sg1345
g1346
((dp1634
I00
I7
sI01
I1
stRp1635
sg1349
I2
sg1350
F9
sbs(g571
g542
tp1636
g1
(g1340
g3
NtRp1637
(dp1638
g1343
F0.5
sg1344
I3
sg1345
g1346
((dp1639
I00
I2
sI01
I1
stRp1640
sg1349
I2
sg1350
F4
sbs(g740
g711
tp1641
g1
(g1340
g3
NtRp1642
(dp1643
g1343
F0.5
sg1344
I5
sg1345
g1346
((dp1644
I00
I5
stRp1645
sg1349
I2
sg1350
F6
sbs(g1021
g1020
tp1646
g1
(g1340
g3
NtRp1647
(dp1648
g1343
F0.5
sg1344
I3
sg1345
g1346
((dp1649
I00
I2
sI01
I1
stRp1650
sg1349
I2
sg1350
F4
sbs(g346
g300
tp1651
g1
(g1340
g3
NtRp1652
(dp1653
g1343
F0.5
sg1344
I4
sg1345
g1346
((dp1654
I00
I4
stRp1655
sg1349
I2
sg1350
F5
sbs(g65
g31
tp1656
g1
(g1340
g3
NtRp1657
(dp1658
g1343
F0.5
sg1344
I8
sg1345
g1346
((dp1659
I00
I8
stRp1660
sg1349
I2
sg1350
F9
sbs(g65
g55
tp1661
g1
(g1340
g3
NtRp1662
(dp1663
g1343
F0.5
sg1344
I8
sg1345
g1346
((dp1664
I00
I8
stRp1665
sg1349
I2
sg1350
F9
sbs(g65
g64
tp1666
g1
(g1340
g3
NtRp1667
(dp1668
g1343
F0.5
sg1344
I8
sg1345
g1346
((dp1669
I00
I8
stRp1670
sg1349
I2
sg1350
F9
sbs(g571
g520
tp1671
g1
(g1340
g3
NtRp1672
(dp1673
g1343
F0.5
sg1344
I3
sg1345
g1346
((dp1674
I00
I3
stRp1675
sg1349
I2
sg1350
F4
sbs(g1021
g1011
tp1676
g1
(g1340
g3
NtRp1677
(dp1678
g1343
F0.5
sg1344
I3
sg1345
g1346
((dp1679
I00
I3
stRp1680
sg1349
I2
sg1350
F4
sbs(g571
g522
tp1681
g1
(g1340
g3
NtRp1682
(dp1683
g1343
F0.5
sg1344
I3
sg1345
g1346
((dp1684
I00
I3
stRp1685
sg1349
I2
sg1350
F4
sbs(g65
g23
tp1686
g1
(g1340
g3
NtRp1687
(dp1688
g1343
F0.5
sg1344
I8
sg1345
g1346
((dp1689
I00
I8
stRp1690
sg1349
I2
sg1350
F9
sbs(g571
g565
tp1691
g1
(g1340
g3
NtRp1692
(dp1693
g1343
F0.5
sg1344
I3
sg1345
g1346
((dp1694
I00
I3
stRp1695
sg1349
I2
sg1350
F4
sbs(g740
g720
tp1696
g1
(g1340
g3
NtRp1697
(dp1698
g1343
F0.5
sg1344
I5
sg1345
g1346
((dp1699
I00
I5
stRp1700
sg1349
I2
sg1350
F6
sbs(g1021
g1002
tp1701
g1
(g1340
g3
NtRp1702
(dp1703
g1343
F0.5
sg1344
I3
sg1345
g1346
((dp1704
I00
I3
stRp1705
sg1349
I2
sg1350
F4
sbs(g1021
g1006
tp1706
g1
(g1340
g3
NtRp1707
(dp1708
g1343
F0.5
sg1344
I3
sg1345
g1346
((dp1709
I00
I3
stRp1710
sg1349
I2
sg1350
F4
sbs(g1021
g969
tp1711
g1
(g1340
g3
NtRp1712
(dp1713
g1343
F0.5
sg1344
I3
sg1345
g1346
((dp1714
I00
I3
stRp1715
sg1349
I2
sg1350
F4
sbs(g346
g330
tp1716
g1
(g1340
g3
NtRp1717
(dp1718
g1343
F0.5
sg1344
I4
sg1345
g1346
((dp1719
I00
I3
sI01
I1
stRp1720
sg1349
I2
sg1350
F5
sbs(g740
g687
tp1721
g1
(g1340
g3
NtRp1722
(dp1723
g1343
F0.5
sg1344
I5
sg1345
g1346
((dp1724
I00
I5
stRp1725
sg1349
I1
sg1350
F5.5
sbs(g571
g524
tp1726
g1
(g1340
g3
NtRp1727
(dp1728
g1343
F0.5
sg1344
I3
sg1345
g1346
((dp1729
I00
I3
stRp1730
sg1349
I2
sg1350
F4
sbs(g65
g24
tp1731
g1
(g1340
g3
NtRp1732
(dp1733
g1343
F0.5
sg1344
I8
sg1345
g1346
((dp1734
I00
I8
stRp1735
sg1349
I2
sg1350
F9
sbs(g65
g60
tp1736
g1
(g1340
g3
NtRp1737
(dp1738
g1343
F0.5
sg1344
I8
sg1345
g1346
((dp1739
I00
I8
stRp1740
sg1349
I2
sg1350
F9
sbs(g1021
g1000
tp1741
g1
(g1340
g3
NtRp1742
(dp1743
g1343
F0.5
sg1344
I3
sg1345
g1346
((dp1744
I00
I3
stRp1745
sg1349
I2
sg1350
F4
sbs(g1021
g991
tp1746
g1
(g1340
g3
NtRp1747
(dp1748
g1343
F0.5
sg1344
I3
sg1345
g1346
((dp1749
I00
I3
stRp1750
sg1349
I2
sg1350
F4
sbs(g346
g308
tp1751
g1
(g1340
g3
NtRp1752
(dp1753
g1343
F0.5
sg1344
I4
sg1345
g1346
((dp1754
I00
I4
stRp1755
sg1349
I2
sg1350
F5
sbs(g571
g546
tp1756
g1
(g1340
g3
NtRp1757
(dp1758
g1343
F0.5
sg1344
I3
sg1345
g1346
((dp1759
I00
I2
sI01
I1
stRp1760
sg1349
I2
sg1350
F4
sbs(g740
g713
tp1761
g1
(g1340
g3
NtRp1762
(dp1763
g1343
F0.5
sg1344
I5
sg1345
g1346
((dp1764
I00
I4
sI01
I1
stRp1765
sg1349
I2
sg1350
F6
sbs(g571
g549
tp1766
g1
(g1340
g3
NtRp1767
(dp1768
g1343
F0.5
sg1344
I3
sg1345
g1346
((dp1769
I00
I3
stRp1770
sg1349
I2
sg1350
F4
sbs(g740
g718
tp1771
g1
(g1340
g3
NtRp1772
(dp1773
g1343
F0.5
sg1344
I5
sg1345
g1346
((dp1774
I00
I5
stRp1775
sg1349
I2
sg1350
F6
sbs(g571
g527
tp1776
g1
(g1340
g3
NtRp1777
(dp1778
g1343
F0.5
sg1344
I3
sg1345
g1346
((dp1779
I00
I3
stRp1780
sg1349
I2
sg1350
F4
sbs(g1021
g980
tp1781
g1
(g1340
g3
NtRp1782
(dp1783
g1343
F0.5
sg1344
I3
sg1345
g1346
((dp1784
I00
I3
stRp1785
sg1349
I2
sg1350
F4
sbs(g1021
g968
tp1786
g1
(g1340
g3
NtRp1787
(dp1788
g1343
F0.5
sg1344
I3
sg1345
g1346
((dp1789
I00
I3
stRp1790
sg1349
I1
sg1350
F3.5
sbs(g65
g36
tp1791
g1
(g1340
g3
NtRp1792
(dp1793
g1343
F0.5
sg1344
I8
sg1345
g1346
((dp1794
I00
I8
stRp1795
sg1349
I2
sg1350
F9
sbs(g346
g325
tp1796
g1
(g1340
g3
NtRp1797
(dp1798
g1343
F0.5
sg1344
I4
sg1345
g1346
((dp1799
I00
I4
stRp1800
sg1349
I2
sg1350
F5
sbs(g571
g550
tp1801
g1
(g1340
g3
NtRp1802
(dp1803
g1343
F0.5
sg1344
I3
sg1345
g1346
((dp1804
I00
I2
sI01
I1
stRp1805
sg1349
I2
sg1350
F4
sbs(g346
g315
tp1806
g1
(g1340
g3
NtRp1807
(dp1808
g1343
F0.5
sg1344
I4
sg1345
g1346
((dp1809
I00
I4
stRp1810
sg1349
I2
sg1350
F5
sbs(g740
g694
tp1811
g1
(g1340
g3
NtRp1812
(dp1813
g1343
F0.5
sg1344
I5
sg1345
g1346
((dp1814
I00
I5
stRp1815
sg1349
I2
sg1350
F6
sbs(g346
g303
tp1816
g1
(g1340
g3
NtRp1817
(dp1818
g1343
F0.5
sg1344
I4
sg1345
g1346
((dp1819
I00
I4
stRp1820
sg1349
I2
sg1350
F5
sbs(g65
g46
tp1821
g1
(g1340
g3
NtRp1822
(dp1823
g1343
F0.5
sg1344
I8
sg1345
g1346
((dp1824
I00
I8
stRp1825
sg1349
I2
sg1350
F9
sbs(g1021
g1018
tp1826
g1
(g1340
g3
NtRp1827
(dp1828
g1343
F0.5
sg1344
I3
sg1345
g1346
((dp1829
I00
I3
stRp1830
sg1349
I1
sg1350
F3.5
sbs(g571
g570
tp1831
g1
(g1340
g3
NtRp1832
(dp1833
g1343
F0.5
sg1344
I3
sg1345
g1346
((dp1834
I00
I3
stRp1835
sg1349
I2
sg1350
F4
sbs(g346
g323
tp1836
g1
(g1340
g3
NtRp1837
(dp1838
g1343
F0.5
sg1344
I4
sg1345
g1346
((dp1839
I00
I4
stRp1840
sg1349
I2
sg1350
F5
sbs(g740
g730
tp1841
g1
(g1340
g3
NtRp1842
(dp1843
g1343
F0.5
sg1344
I5
sg1345
g1346
((dp1844
I00
I5
stRp1845
sg1349
I2
sg1350
F6
sbs(g571
g529
tp1846
g1
(g1340
g3
NtRp1847
(dp1848
g1343
F0.5
sg1344
I3
sg1345
g1346
((dp1849
I00
I2
sI01
I1
stRp1850
sg1349
I2
sg1350
F4
sbs(g1021
g979
tp1851
g1
(g1340
g3
NtRp1852
(dp1853
g1343
F0.5
sg1344
I3
sg1345
g1346
((dp1854
I01
I3
stRp1855
sg1349
I2
sg1350
F4
sbs(g1021
g975
tp1856
g1
(g1340
g3
NtRp1857
(dp1858
g1343
F0.5
sg1344
I3
sg1345
g1346
((dp1859
I00
I3
stRp1860
sg1349
I2
sg1350
F4
sbs(g740
g686
tp1861
g1
(g1340
g3
NtRp1862
(dp1863
g1343
F0.5
sg1344
I5
sg1345
g1346
((dp1864
I00
I5
stRp1865
sg1349
I2
sg1350
F6
sbs(g740
g731
tp1866
g1
(g1340
g3
NtRp1867
(dp1868
g1343
F0.5
sg1344
I5
sg1345
g1346
((dp1869
I00
I5
stRp1870
sg1349
I2
sg1350
F6
sbs(g65
g62
tp1871
g1
(g1340
g3
NtRp1872
(dp1873
g1343
F0.5
sg1344
I8
sg1345
g1346
((dp1874
I00
I8
stRp1875
sg1349
I1
sg1350
F8.5
sbs(g571
g526
tp1876
g1
(g1340
g3
NtRp1877
(dp1878
g1343
F0.5
sg1344
I3
sg1345
g1346
((dp1879
I00
I3
stRp1880
sg1349
I2
sg1350
F4
sbs(g571
g530
tp1881
g1
(g1340
g3
NtRp1882
(dp1883
g1343
F0.5
sg1344
I3
sg1345
g1346
((dp1884
I00
I3
stRp1885
sg1349
I2
sg1350
F4
sbs(g571
g536
tp1886
g1
(g1340
g3
NtRp1887
(dp1888
g1343
F0.5
sg1344
I3
sg1345
g1346
((dp1889
I00
I3
stRp1890
sg1349
I2
sg1350
F4
sbs(g571
g564
tp1891
g1
(g1340
g3
NtRp1892
(dp1893
g1343
F0.5
sg1344
I3
sg1345
g1346
((dp1894
I00
I3
stRp1895
sg1349
I2
sg1350
F4
sbs(g740
g728
tp1896
g1
(g1340
g3
NtRp1897
(dp1898
g1343
F0.5
sg1344
I5
sg1345
g1346
((dp1899
I00
I5
stRp1900
sg1349
I2
sg1350
F6
sbs(g571
g557
tp1901
g1
(g1340
g3
NtRp1902
(dp1903
g1343
F0.5
sg1344
I3
sg1345
g1346
((dp1904
I00
I3
stRp1905
sg1349
I2
sg1350
F4
sbs(g346
g335
tp1906
g1
(g1340
g3
NtRp1907
(dp1908
g1343
F0.5
sg1344
I4
sg1345
g1346
((dp1909
I00
I4
stRp1910
sg1349
I2
sg1350
F5
sbs(g346
g327
tp1911
g1
(g1340
g3
NtRp1912
(dp1913
g1343
F0.5
sg1344
I4
sg1345
g1346
((dp1914
I00
I3
sI01
I1
stRp1915
sg1349
I2
sg1350
F5
sbs(g740
g735
tp1916
g1
(g1340
g3
NtRp1917
(dp1918
g1343
F0.5
sg1344
I5
sg1345
g1346
((dp1919
I00
I4
sI01
I1
stRp1920
sg1349
I2
sg1350
F6
sbs(g346
g306
tp1921
g1
(g1340
g3
NtRp1922
(dp1923
g1343
F0.5
sg1344
I4
sg1345
g1346
((dp1924
I00
I4
stRp1925
sg1349
I2
sg1350
F5
sbs(g740
g688
tp1926
g1
(g1340
g3
NtRp1927
(dp1928
g1343
F0.5
sg1344
I5
sg1345
g1346
((dp1929
I01
I5
stRp1930
sg1349
I2
sg1350
F6
sbs(g65
g43
tp1931
g1
(g1340
g3
NtRp1932
(dp1933
g1343
F0.5
sg1344
I8
sg1345
g1346
((dp1934
I00
I8
stRp1935
sg1349
I2
sg1350
F9
sbs(g740
g737
tp1936
g1
(g1340
g3
NtRp1937
(dp1938
g1343
F0.5
sg1344
I5
sg1345
g1346
((dp1939
I00
I5
stRp1940
sg1349
I1
sg1350
F5.5
sbs(g346
g341
tp1941
g1
(g1340
g3
NtRp1942
(dp1943
g1343
F0.5
sg1344
I4
sg1345
g1346
((dp1944
I00
I4
stRp1945
sg1349
I2
sg1350
F5
sbs(g1021
g1012
tp1946
g1
(g1340
g3
NtRp1947
(dp1948
g1343
F0.5
sg1344
I3
sg1345
g1346
((dp1949
I00
I3
stRp1950
sg1349
I2
sg1350
F4
sbs(g740
g692
tp1951
g1
(g1340
g3
NtRp1952
(dp1953
g1343
F0.5
sg1344
I5
sg1345
g1346
((dp1954
I00
I5
stRp1955
sg1349
I2
sg1350
F6
sbs(g346
g296
tp1956
g1
(g1340
g3
NtRp1957
(dp1958
g1343
F0.5
sg1344
I4
sg1345
g1346
((dp1959
I00
I3
sI01
I1
stRp1960
sg1349
I2
sg1350
F5
sbs(g1021
g987
tp1961
g1
(g1340
g3
NtRp1962
(dp1963
g1343
F0.5
sg1344
I3
sg1345
g1346
((dp1964
I00
I3
stRp1965
sg1349
I2
sg1350
F4
sbs(g346
g332
tp1966
g1
(g1340
g3
NtRp1967
(dp1968
g1343
F0.5
sg1344
I4
sg1345
g1346
((dp1969
I00
I4
stRp1970
sg1349
I2
sg1350
F5
sbs(g65
g44
tp1971
g1
(g1340
g3
NtRp1972
(dp1973
g1343
F0.5
sg1344
I8
sg1345
g1346
((dp1974
I00
I8
stRp1975
sg1349
I2
sg1350
F9
sbs(g740
g690
tp1976
g1
(g1340
g3
NtRp1977
(dp1978
g1343
F0.5
sg1344
I5
sg1345
g1346
((dp1979
I00
I5
stRp1980
sg1349
I2
sg1350
F6
sbs(g1021
g1009
tp1981
g1
(g1340
g3
NtRp1982
(dp1983
g1343
F0.5
sg1344
I3
sg1345
g1346
((dp1984
I00
I2
sI01
I1
stRp1985
sg1349
I2
sg1350
F4
sbs(g346
g292
tp1986
g1
(g1340
g3
NtRp1987
(dp1988
g1343
F0.5
sg1344
I4
sg1345
g1346
((dp1989
I00
I3
sI01
I1
stRp1990
sg1349
I2
sg1350
F5
sbs(g1021
g1015
tp1991
g1
(g1340
g3
NtRp1992
(dp1993
g1343
F0.5
sg1344
I3
sg1345
g1346
((dp1994
I00
I3
stRp1995
sg1349
I2
sg1350
F4
sbs(g1021
g995
tp1996
g1
(g1340
g3
NtRp1997
(dp1998
g1343
F0.5
sg1344
I3
sg1345
g1346
((dp1999
I00
I3
stRp2000
sg1349
I2
sg1350
F4
sbs(g346
g336
tp2001
g1
(g1340
g3
NtRp2002
(dp2003
g1343
F0.5
sg1344
I4
sg1345
g1346
((dp2004
I00
I4
stRp2005
sg1349
I2
sg1350
F5
sbs(g346
g307
tp2006
g1
(g1340
g3
NtRp2007
(dp2008
g1343
F0.5
sg1344
I4
sg1345
g1346
((dp2009
I00
I4
stRp2010
sg1349
I2
sg1350
F5
sbs(g1021
g982
tp2011
g1
(g1340
g3
NtRp2012
(dp2013
g1343
F0.5
sg1344
I3
sg1345
g1346
((dp2014
I00
I3
stRp2015
sg1349
I2
sg1350
F4
sbs(g1021
g978
tp2016
g1
(g1340
g3
NtRp2017
(dp2018
g1343
F0.5
sg1344
I3
sg1345
g1346
((dp2019
I00
I2
sI01
I1
stRp2020
sg1349
I2
sg1350
F4
sbs(g740
g723
tp2021
g1
(g1340
g3
NtRp2022
(dp2023
g1343
F0.5
sg1344
I5
sg1345
g1346
((dp2024
I00
I4
sI01
I1
stRp2025
sg1349
I2
sg1350
F6
sbs(g740
g734
tp2026
g1
(g1340
g3
NtRp2027
(dp2028
g1343
F0.5
sg1344
I5
sg1345
g1346
((dp2029
I00
I5
stRp2030
sg1349
I2
sg1350
F6
sbs(g571
g521
tp2031
g1
(g1340
g3
NtRp2032
(dp2033
g1343
F0.5
sg1344
I3
sg1345
g1346
((dp2034
I00
I3
stRp2035
sg1349
I2
sg1350
F4
sbs(g571
g528
tp2036
g1
(g1340
g3
NtRp2037
(dp2038
g1343
F0.5
sg1344
I3
sg1345
g1346
((dp2039
I00
I2
sI01
I1
stRp2040
sg1349
I2
sg1350
F4
sbs(g65
g50
tp2041
g1
(g1340
g3
NtRp2042
(dp2043
g1343
F0.5
sg1344
I8
sg1345
g1346
((dp2044
I00
I7
sI01
I1
stRp2045
sg1349
I2
sg1350
F9
sbs(g65
g30
tp2046
g1
(g1340
g3
NtRp2047
(dp2048
g1343
F0.5
sg1344
I8
sg1345
g1346
((dp2049
I00
I8
stRp2050
sg1349
I2
sg1350
F9
sbs(g1021
g993
tp2051
g1
(g1340
g3
NtRp2052
(dp2053
g1343
F0.5
sg1344
I3
sg1345
g1346
((dp2054
I00
I3
stRp2055
sg1349
I2
sg1350
F4
sbs(g346
g345
tp2056
g1
(g1340
g3
NtRp2057
(dp2058
g1343
F0.5
sg1344
I4
sg1345
g1346
((dp2059
I00
I4
stRp2060
sg1349
I2
sg1350
F5
sbs(g346
g328
tp2061
g1
(g1340
g3
NtRp2062
(dp2063
g1343
F0.5
sg1344
I4
sg1345
g1346
((dp2064
I00
I4
stRp2065
sg1349
I2
sg1350
F5
sbs(g65
g45
tp2066
g1
(g1340
g3
NtRp2067
(dp2068
g1343
F0.5
sg1344
I8
sg1345
g1346
((dp2069
I00
I7
sI01
I1
stRp2070
sg1349
I2
sg1350
F9
sbs(g65
g26
tp2071
g1
(g1340
g3
NtRp2072
(dp2073
g1343
F0.5
sg1344
I8
sg1345
g1346
((dp2074
I00
I8
stRp2075
sg1349
I2
sg1350
F9
sbs(g571
g539
tp2076
g1
(g1340
g3
NtRp2077
(dp2078
g1343
F0.5
sg1344
I3
sg1345
g1346
((dp2079
I00
I2
sI01
I1
stRp2080
sg1349
I2
sg1350
F4
sbs(g65
g33
tp2081
g1
(g1340
g3
NtRp2082
(dp2083
g1343
F0.5
sg1344
I8
sg1345
g1346
((dp2084
I00
I8
stRp2085
sg1349
I2
sg1350
F9
sbs(g571
g547
tp2086
g1
(g1340
g3
NtRp2087
(dp2088
g1343
F0.5
sg1344
I3
sg1345
g1346
((dp2089
I01
I3
stRp2090
sg1349
I2
sg1350
F4
sbs(g1021
g1001
tp2091
g1
(g1340
g3
NtRp2092
(dp2093
g1343
F0.5
sg1344
I3
sg1345
g1346
((dp2094
I00
I3
stRp2095
sg1349
I2
sg1350
F4
sbs(g740
g716
tp2096
g1
(g1340
g3
NtRp2097
(dp2098
g1343
F0.5
sg1344
I5
sg1345
g1346
((dp2099
I00
I3
sI01
I2
stRp2100
sg1349
I2
sg1350
F6
sbs(g346
g310
tp2101
g1
(g1340
g3
NtRp2102
(dp2103
g1343
F0.5
sg1344
I4
sg1345
g1346
((dp2104
I00
I4
stRp2105
sg1349
I2
sg1350
F5
sbs(g346
g312
tp2106
g1
(g1340
g3
NtRp2107
(dp2108
g1343
F0.5
sg1344
I4
sg1345
g1346
((dp2109
I00
I4
stRp2110
sg1349
I2
sg1350
F5
sbs(g571
g537
tp2111
g1
(g1340
g3
NtRp2112
(dp2113
g1343
F0.5
sg1344
I3
sg1345
g1346
((dp2114
I00
I3
stRp2115
sg1349
I2
sg1350
F4
sbs(g571
g533
tp2116
g1
(g1340
g3
NtRp2117
(dp2118
g1343
F0.5
sg1344
I3
sg1345
g1346
((dp2119
I00
I3
stRp2120
sg1349
I2
sg1350
F4
sbs(g346
g305
tp2121
g1
(g1340
g3
NtRp2122
(dp2123
g1343
F0.5
sg1344
I4
sg1345
g1346
((dp2124
I00
I4
stRp2125
sg1349
I2
sg1350
F5
sbs(g65
g57
tp2126
g1
(g1340
g3
NtRp2127
(dp2128
g1343
F0.5
sg1344
I8
sg1345
g1346
((dp2129
I00
I8
stRp2130
sg1349
I2
sg1350
F9
sbs(g1021
g1010
tp2131
g1
(g1340
g3
NtRp2132
(dp2133
g1343
F0.5
sg1344
I3
sg1345
g1346
((dp2134
I00
I3
stRp2135
sg1349
I2
sg1350
F4
sbs(g346
g329
tp2136
g1
(g1340
g3
NtRp2137
(dp2138
g1343
F0.5
sg1344
I4
sg1345
g1346
((dp2139
I00
I4
stRp2140
sg1349
I2
sg1350
F5
sbs(g1021
g989
tp2141
g1
(g1340
g3
NtRp2142
(dp2143
g1343
F0.5
sg1344
I3
sg1345
g1346
((dp2144
I00
I3
stRp2145
sg1349
I2
sg1350
F4
sbs(g1021
g997
tp2146
g1
(g1340
g3
NtRp2147
(dp2148
g1343
F0.5
sg1344
I3
sg1345
g1346
((dp2149
I00
I3
stRp2150
sg1349
I2
sg1350
F4
sbs(g1021
g972
tp2151
g1
(g1340
g3
NtRp2152
(dp2153
g1343
F0.5
sg1344
I3
sg1345
g1346
((dp2154
I00
I2
sI01
I1
stRp2155
sg1349
I2
sg1350
F4
sbs(g740
g739
tp2156
g1
(g1340
g3
NtRp2157
(dp2158
g1343
F0.5
sg1344
I5
sg1345
g1346
((dp2159
I00
I2
sI01
I3
stRp2160
sg1349
I2
sg1350
F6
sbs(g571
g558
tp2161
g1
(g1340
g3
NtRp2162
(dp2163
g1343
F0.5
sg1344
I3
sg1345
g1346
((dp2164
I00
I3
stRp2165
sg1349
I2
sg1350
F4
sbs(g346
g334
tp2166
g1
(g1340
g3
NtRp2167
(dp2168
g1343
F0.5
sg1344
I4
sg1345
g1346
((dp2169
I00
I4
stRp2170
sg1349
I2
sg1350
F5
sbs(g1021
g976
tp2171
g1
(g1340
g3
NtRp2172
(dp2173
g1343
F0.5
sg1344
I3
sg1345
g1346
((dp2174
I00
I3
stRp2175
sg1349
I2
sg1350
F4
sbs(g65
g61
tp2176
g1
(g1340
g3
NtRp2177
(dp2178
g1343
F0.5
sg1344
I8
sg1345
g1346
((dp2179
I00
I8
stRp2180
sg1349
I2
sg1350
F9
sbs(g1021
g967
tp2181
g1
(g1340
g3
NtRp2182
(dp2183
g1343
F0.5
sg1344
I3
sg1345
g1346
((dp2184
I00
I3
stRp2185
sg1349
I2
sg1350
F4
sbs(g346
g340
tp2186
g1
(g1340
g3
NtRp2187
(dp2188
g1343
F0.5
sg1344
I4
sg1345
g1346
((dp2189
I00
I4
stRp2190
sg1349
I2
sg1350
F5
sbs(g65
g22
tp2191
g1
(g1340
g3
NtRp2192
(dp2193
g1343
F0.5
sg1344
I8
sg1345
g1346
((dp2194
I00
I8
stRp2195
sg1349
I2
sg1350
F9
sbs(g1021
g994
tp2196
g1
(g1340
g3
NtRp2197
(dp2198
g1343
F0.5
sg1344
I3
sg1345
g1346
((dp2199
I00
I3
stRp2200
sg1349
I2
sg1350
F4
sbs(g1021
g985
tp2201
g1
(g1340
g3
NtRp2202
(dp2203
g1343
F0.5
sg1344
I3
sg1345
g1346
((dp2204
I00
I3
stRp2205
sg1349
I2
sg1350
F4
sbs(g1021
g970
tp2206
g1
(g1340
g3
NtRp2207
(dp2208
g1343
F0.5
sg1344
I3
sg1345
g1346
((dp2209
I00
I3
stRp2210
sg1349
I2
sg1350
F4
sbs(g65
g49
tp2211
g1
(g1340
g3
NtRp2212
(dp2213
g1343
F0.5
sg1344
I8
sg1345
g1346
((dp2214
I00
I8
stRp2215
sg1349
I2
sg1350
F9
sbs(g571
g568
tp2216
g1
(g1340
g3
NtRp2217
(dp2218
g1343
F0.5
sg1344
I3
sg1345
g1346
((dp2219
I00
I3
stRp2220
sg1349
I1
sg1350
F3.5
sbs(g571
g532
tp2221
g1
(g1340
g3
NtRp2222
(dp2223
g1343
F0.5
sg1344
I3
sg1345
g1346
((dp2224
I00
I1
sI01
I2
stRp2225
sg1349
I2
sg1350
F4
sbs(g571
g563
tp2226
g1
(g1340
g3
NtRp2227
(dp2228
g1343
F0.5
sg1344
I3
sg1345
g1346
((dp2229
I01
I3
stRp2230
sg1349
I2
sg1350
F4
sbs(g740
g704
tp2231
g1
(g1340
g3
NtRp2232
(dp2233
g1343
F0.5
sg1344
I5
sg1345
g1346
((dp2234
I00
I3
sI01
I2
stRp2235
sg1349
I2
sg1350
F6
sbs(g65
g29
tp2236
g1
(g1340
g3
NtRp2237
(dp2238
g1343
F0.5
sg1344
I8
sg1345
g1346
((dp2239
I00
I8
stRp2240
sg1349
I2
sg1350
F9
sbs(g571
g535
tp2241
g1
(g1340
g3
NtRp2242
(dp2243
g1343
F0.5
sg1344
I3
sg1345
g1346
((dp2244
I00
I3
stRp2245
sg1349
I2
sg1350
F4
sbs(g1021
g983
tp2246
g1
(g1340
g3
NtRp2247
(dp2248
g1343
F0.5
sg1344
I3
sg1345
g1346
((dp2249
I00
I2
sI01
I1
stRp2250
sg1349
I2
sg1350
F4
sbs(g346
g318
tp2251
g1
(g1340
g3
NtRp2252
(dp2253
g1343
F0.5
sg1344
I4
sg1345
g1346
((dp2254
I00
I3
sI01
I1
stRp2255
sg1349
I2
sg1350
F5
sbs(g65
g27
tp2256
g1
(g1340
g3
NtRp2257
(dp2258
g1343
F0.5
sg1344
I8
sg1345
g1346
((dp2259
I00
I8
stRp2260
sg1349
I2
sg1350
F9
sbs(g1021
g1005
tp2261
g1
(g1340
g3
NtRp2262
(dp2263
g1343
F0.5
sg1344
I3
sg1345
g1346
((dp2264
I00
I3
stRp2265
sg1349
I2
sg1350
F4
sbs(g740
g689
tp2266
g1
(g1340
g3
NtRp2267
(dp2268
g1343
F0.5
sg1344
I5
sg1345
g1346
((dp2269
I00
I5
stRp2270
sg1349
I2
sg1350
F6
sbs(g571
g544
tp2271
g1
(g1340
g3
NtRp2272
(dp2273
g1343
F0.5
sg1344
I3
sg1345
g1346
((dp2274
I00
I3
stRp2275
sg1349
I2
sg1350
F4
sbs(g65
g12
tp2276
g1
(g1340
g3
NtRp2277
(dp2278
g1343
F0.5
sg1344
I8
sg1345
g1346
((dp2279
I00
I8
stRp2280
sg1349
I1
sg1350
F8.5
sbs(g346
g294
tp2281
g1
(g1340
g3
NtRp2282
(dp2283
g1343
F0.5
sg1344
I4
sg1345
g1346
((dp2284
I00
I4
stRp2285
sg1349
I2
sg1350
F5
sbs(g740
g733
tp2286
g1
(g1340
g3
NtRp2287
(dp2288
g1343
F0.5
sg1344
I5
sg1345
g1346
((dp2289
I00
I5
stRp2290
sg1349
I2
sg1350
F6
sbs(g1021
g1007
tp2291
g1
(g1340
g3
NtRp2292
(dp2293
g1343
F0.5
sg1344
I3
sg1345
g1346
((dp2294
I00
I3
stRp2295
sg1349
I2
sg1350
F4
sbs(g65
g58
tp2296
g1
(g1340
g3
NtRp2297
(dp2298
g1343
F0.5
sg1344
I8
sg1345
g1346
((dp2299
I00
I7
sI01
I1
stRp2300
sg1349
I2
sg1350
F9
sbs(g346
g311
tp2301
g1
(g1340
g3
NtRp2302
(dp2303
g1343
F0.5
sg1344
I4
sg1345
g1346
((dp2304
I00
I4
stRp2305
sg1349
I2
sg1350
F5
sbs(g65
g52
tp2306
g1
(g1340
g3
NtRp2307
(dp2308
g1343
F0.5
sg1344
I8
sg1345
g1346
((dp2309
I00
I7
sI01
I1
stRp2310
sg1349
I2
sg1350
F9
sbs(g740
g717
tp2311
g1
(g1340
g3
NtRp2312
(dp2313
g1343
F0.5
sg1344
I5
sg1345
g1346
((dp2314
I00
I5
stRp2315
sg1349
I2
sg1350
F6
sbs(g65
g37
tp2316
g1
(g1340
g3
NtRp2317
(dp2318
g1343
F0.5
sg1344
I8
sg1345
g1346
((dp2319
I00
I7
sI01
I1
stRp2320
sg1349
I2
sg1350
F9
sbs(g571
g567
tp2321
g1
(g1340
g3
NtRp2322
(dp2323
g1343
F0.5
sg1344
I3
sg1345
g1346
((dp2324
I00
I2
sI01
I1
stRp2325
sg1349
I2
sg1350
F4
sbs(g1021
g1004
tp2326
g1
(g1340
g3
NtRp2327
(dp2328
g1343
F0.5
sg1344
I3
sg1345
g1346
((dp2329
I00
I3
stRp2330
sg1349
I2
sg1350
F4
sbs(g1021
g984
tp2331
g1
(g1340
g3
NtRp2332
(dp2333
g1343
F0.5
sg1344
I3
sg1345
g1346
((dp2334
I00
I2
sI01
I1
stRp2335
sg1349
I2
sg1350
F4
sbs(g346
g293
tp2336
g1
(g1340
g3
NtRp2337
(dp2338
g1343
F0.5
sg1344
I4
sg1345
g1346
((dp2339
I00
I4
stRp2340
sg1349
I1
sg1350
F4.5
sbs(g346
g295
tp2341
g1
(g1340
g3
NtRp2342
(dp2343
g1343
F0.5
sg1344
I4
sg1345
g1346
((dp2344
I00
I3
sI01
I1
stRp2345
sg1349
I2
sg1350
F5
sbs(g571
g569
tp2346
g1
(g1340
g3
NtRp2347
(dp2348
g1343
F0.5
sg1344
I3
sg1345
g1346
((dp2349
I00
I3
stRp2350
sg1349
I2
sg1350
F4
sbs(g740
g719
tp2351
g1
(g1340
g3
NtRp2352
(dp2353
g1343
F0.5
sg1344
I5
sg1345
g1346
((dp2354
I00
I5
stRp2355
sg1349
I2
sg1350
F6
sbs(g346
g314
tp2356
g1
(g1340
g3
NtRp2357
(dp2358
g1343
F0.5
sg1344
I4
sg1345
g1346
((dp2359
I00
I4
stRp2360
sg1349
I2
sg1350
F5
sbs(g740
g698
tp2361
g1
(g1340
g3
NtRp2362
(dp2363
g1343
F0.5
sg1344
I5
sg1345
g1346
((dp2364
I00
I2
sI01
I3
stRp2365
sg1349
I2
sg1350
F6
sbs(g1021
g998
tp2366
g1
(g1340
g3
NtRp2367
(dp2368
g1343
F0.5
sg1344
I3
sg1345
g1346
((dp2369
I00
I3
stRp2370
sg1349
I2
sg1350
F4
sbs(g346
g324
tp2371
g1
(g1340
g3
NtRp2372
(dp2373
g1343
F0.5
sg1344
I4
sg1345
g1346
((dp2374
I00
I4
stRp2375
sg1349
I2
sg1350
F5
sbs(g1021
g1019
tp2376
g1
(g1340
g3
NtRp2377
(dp2378
g1343
F0.5
sg1344
I3
sg1345
g1346
((dp2379
I00
I3
stRp2380
sg1349
I2
sg1350
F4
sbs(g571
g554
tp2381
g1
(g1340
g3
NtRp2382
(dp2383
g1343
F0.5
sg1344
I3
sg1345
g1346
((dp2384
I00
I3
stRp2385
sg1349
I2
sg1350
F4
sbs(g740
g703
tp2386
g1
(g1340
g3
NtRp2387
(dp2388
g1343
F0.5
sg1344
I5
sg1345
g1346
((dp2389
I00
I5
stRp2390
sg1349
I2
sg1350
F6
sbs(g571
g559
tp2391
g1
(g1340
g3
NtRp2392
(dp2393
g1343
F0.5
sg1344
I3
sg1345
g1346
((dp2394
I00
I3
stRp2395
sg1349
I2
sg1350
F4
sbs(g571
g534
tp2396
g1
(g1340
g3
NtRp2397
(dp2398
g1343
F0.5
sg1344
I3
sg1345
g1346
((dp2399
I00
I3
stRp2400
sg1349
I2
sg1350
F4
sbs(g740
g705
tp2401
g1
(g1340
g3
NtRp2402
(dp2403
g1343
F0.5
sg1344
I5
sg1345
g1346
((dp2404
I00
I3
sI01
I2
stRp2405
sg1349
I2
sg1350
F6
sbs(g65
g53
tp2406
g1
(g1340
g3
NtRp2407
(dp2408
g1343
F0.5
sg1344
I8
sg1345
g1346
((dp2409
I00
I8
stRp2410
sg1349
I2
sg1350
F9
sbs(g571
g540
tp2411
g1
(g1340
g3
NtRp2412
(dp2413
g1343
F0.5
sg1344
I3
sg1345
g1346
((dp2414
I00
I3
stRp2415
sg1349
I2
sg1350
F4
sbs(g65
g20
tp2416
g1
(g1340
g3
NtRp2417
(dp2418
g1343
F0.5
sg1344
I8
sg1345
g1346
((dp2419
I00
I7
sI01
I1
stRp2420
sg1349
I2
sg1350
F9
sbs(g571
g538
tp2421
g1
(g1340
g3
NtRp2422
(dp2423
g1343
F0.5
sg1344
I3
sg1345
g1346
((dp2424
I00
I2
sI01
I1
stRp2425
sg1349
I2
sg1350
F4
sbs(g346
g298
tp2426
g1
(g1340
g3
NtRp2427
(dp2428
g1343
F0.5
sg1344
I4
sg1345
g1346
((dp2429
I00
I4
stRp2430
sg1349
I2
sg1350
F5
sbs(g65
g38
tp2431
g1
(g1340
g3
NtRp2432
(dp2433
g1343
F0.5
sg1344
I8
sg1345
g1346
((dp2434
I00
I8
stRp2435
sg1349
I2
sg1350
F9
sbs(g740
g708
tp2436
g1
(g1340
g3
NtRp2437
(dp2438
g1343
F0.5
sg1344
I5
sg1345
g1346
((dp2439
I00
I3
sI01
I2
stRp2440
sg1349
I2
sg1350
F6
sbs(g346
g339
tp2441
g1
(g1340
g3
NtRp2442
(dp2443
g1343
F0.5
sg1344
I4
sg1345
g1346
((dp2444
I00
I4
stRp2445
sg1349
I2
sg1350
F5
sbs(g346
g326
tp2446
g1
(g1340
g3
NtRp2447
(dp2448
g1343
F0.5
sg1344
I4
sg1345
g1346
((dp2449
I00
I4
stRp2450
sg1349
I2
sg1350
F5
sbs(g1021
g999
tp2451
g1
(g1340
g3
NtRp2452
(dp2453
g1343
F0.5
sg1344
I3
sg1345
g1346
((dp2454
I00
I2
sI01
I1
stRp2455
sg1349
I2
sg1350
F4
sbs(g571
g555
tp2456
g1
(g1340
g3
NtRp2457
(dp2458
g1343
F0.5
sg1344
I3
sg1345
g1346
((dp2459
I00
I3
stRp2460
sg1349
I2
sg1350
F4
sbs(g1021
g1016
tp2461
g1
(g1340
g3
NtRp2462
(dp2463
g1343
F0.5
sg1344
I3
sg1345
g1346
((dp2464
I00
I3
stRp2465
sg1349
I2
sg1350
F4
sbs(g571
g543
tp2466
g1
(g1340
g3
NtRp2467
(dp2468
g1343
F0.5
sg1344
I3
sg1345
g1346
((dp2469
I00
I3
stRp2470
sg1349
I2
sg1350
F4
sbs(g740
g712
tp2471
g1
(g1340
g3
NtRp2472
(dp2473
g1343
F0.5
sg1344
I5
sg1345
g1346
((dp2474
I00
I5
stRp2475
sg1349
I2
sg1350
F6
sbs(g346
g313
tp2476
g1
(g1340
g3
NtRp2477
(dp2478
g1343
F0.5
sg1344
I4
sg1345
g1346
((dp2479
I00
I4
stRp2480
sg1349
I2
sg1350
F5
sbs(g740
g727
tp2481
g1
(g1340
g3
NtRp2482
(dp2483
g1343
F0.5
sg1344
I5
sg1345
g1346
((dp2484
I00
I5
stRp2485
sg1349
I2
sg1350
F6
sbs(g740
g732
tp2486
g1
(g1340
g3
NtRp2487
(dp2488
g1343
F0.5
sg1344
I5
sg1345
g1346
((dp2489
I00
I3
sI01
I2
stRp2490
sg1349
I2
sg1350
F6
sbs(g65
g54
tp2491
g1
(g1340
g3
NtRp2492
(dp2493
g1343
F0.5
sg1344
I8
sg1345
g1346
((dp2494
I00
I4
sI01
I4
stRp2495
sg1349
I2
sg1350
F9
sbs(g65
g63
tp2496
g1
(g1340
g3
NtRp2497
(dp2498
g1343
F0.5
sg1344
I8
sg1345
g1346
((dp2499
I00
I8
stRp2500
sg1349
I2
sg1350
F9
sbs(g571
g551
tp2501
g1
(g1340
g3
NtRp2502
(dp2503
g1343
F0.5
sg1344
I3
sg1345
g1346
((dp2504
I00
I3
stRp2505
sg1349
I2
sg1350
F4
sbs(g571
g552
tp2506
g1
(g1340
g3
NtRp2507
(dp2508
g1343
F0.5
sg1344
I3
sg1345
g1346
((dp2509
I00
I3
stRp2510
sg1349
I2
sg1350
F4
sbs(g740
g721
tp2511
g1
(g1340
g3
NtRp2512
(dp2513
g1343
F0.5
sg1344
I5
sg1345
g1346
((dp2514
I00
I5
stRp2515
sg1349
I2
sg1350
F6
sbs(g65
g56
tp2516
g1
(g1340
g3
NtRp2517
(dp2518
g1343
F0.5
sg1344
I8
sg1345
g1346
((dp2519
I00
I7
sI01
I1
stRp2520
sg1349
I2
sg1350
F9
sbs(g65
g34
tp2521
g1
(g1340
g3
NtRp2522
(dp2523
g1343
F0.5
sg1344
I8
sg1345
g1346
((dp2524
I00
I8
stRp2525
sg1349
I2
sg1350
F9
sbs(g346
g302
tp2526
g1
(g1340
g3
NtRp2527
(dp2528
g1343
F0.5
sg1344
I4
sg1345
g1346
((dp2529
I00
I4
stRp2530
sg1349
I2
sg1350
F5
sbs(g65
g28
tp2531
g1
(g1340
g3
NtRp2532
(dp2533
g1343
F0.5
sg1344
I8
sg1345
g1346
((dp2534
I00
I8
stRp2535
sg1349
I2
sg1350
F9
sbs(g740
g697
tp2536
g1
(g1340
g3
NtRp2537
(dp2538
g1343
F0.5
sg1344
I5
sg1345
g1346
((dp2539
I00
I5
stRp2540
sg1349
I2
sg1350
F6
sbs(g346
g316
tp2541
g1
(g1340
g3
NtRp2542
(dp2543
g1343
F0.5
sg1344
I4
sg1345
g1346
((dp2544
I00
I4
stRp2545
sg1349
I2
sg1350
F5
sbs(g571
g518
tp2546
g1
(g1340
g3
NtRp2547
(dp2548
g1343
F0.5
sg1344
I3
sg1345
g1346
((dp2549
I00
I3
stRp2550
sg1349
I1
sg1350
F3.5
sbs(g1021
g1008
tp2551
g1
(g1340
g3
NtRp2552
(dp2553
g1343
F0.5
sg1344
I3
sg1345
g1346
((dp2554
I00
I3
stRp2555
sg1349
I2
sg1350
F4
sbs(g1021
g992
tp2556
g1
(g1340
g3
NtRp2557
(dp2558
g1343
F0.5
sg1344
I3
sg1345
g1346
((dp2559
I00
I3
stRp2560
sg1349
I2
sg1350
F4
sbs(g346
g344
tp2561
g1
(g1340
g3
NtRp2562
(dp2563
g1343
F0.5
sg1344
I4
sg1345
g1346
((dp2564
I00
I4
stRp2565
sg1349
I2
sg1350
F5
sbs(g346
g321
tp2566
g1
(g1340
g3
NtRp2567
(dp2568
g1343
F0.5
sg1344
I4
sg1345
g1346
((dp2569
I00
I4
stRp2570
sg1349
I2
sg1350
F5
sbs(g740
g715
tp2571
g1
(g1340
g3
NtRp2572
(dp2573
g1343
F0.5
sg1344
I5
sg1345
g1346
((dp2574
I00
I5
stRp2575
sg1349
I2
sg1350
F6
sbs(g346
g299
tp2576
g1
(g1340
g3
NtRp2577
(dp2578
g1343
F0.5
sg1344
I4
sg1345
g1346
((dp2579
I00
I3
sI01
I1
stRp2580
sg1349
I2
sg1350
F5
sbs(g1021
g971
tp2581
g1
(g1340
g3
NtRp2582
(dp2583
g1343
F0.5
sg1344
I3
sg1345
g1346
((dp2584
I00
I3
stRp2585
sg1349
I2
sg1350
F4
sbs(g740
g702
tp2586
g1
(g1340
g3
NtRp2587
(dp2588
g1343
F0.5
sg1344
I5
sg1345
g1346
((dp2589
I00
I2
sI01
I3
stRp2590
sg1349
I2
sg1350
F6
sbs(g1021
g990
tp2591
g1
(g1340
g3
NtRp2592
(dp2593
g1343
F0.5
sg1344
I3
sg1345
g1346
((dp2594
I00
I3
stRp2595
sg1349
I2
sg1350
F4
sbs(g1021
g973
tp2596
g1
(g1340
g3
NtRp2597
(dp2598
g1343
F0.5
sg1344
I3
sg1345
g1346
((dp2599
I00
I3
stRp2600
sg1349
I2
sg1350
F4
sbs(g65
g35
tp2601
g1
(g1340
g3
NtRp2602
(dp2603
g1343
F0.5
sg1344
I8
sg1345
g1346
((dp2604
I00
I7
sI01
I1
stRp2605
sg1349
I2
sg1350
F9
sbs(g740
g725
tp2606
g1
(g1340
g3
NtRp2607
(dp2608
g1343
F0.5
sg1344
I5
sg1345
g1346
((dp2609
I00
I5
stRp2610
sg1349
I2
sg1350
F6
sbs(g1021
g1014
tp2611
g1
(g1340
g3
NtRp2612
(dp2613
g1343
F0.5
sg1344
I3
sg1345
g1346
((dp2614
I00
I3
stRp2615
sg1349
I2
sg1350
F4
sbs(g571
g519
tp2616
g1
(g1340
g3
NtRp2617
(dp2618
g1343
F0.5
sg1344
I3
sg1345
g1346
((dp2619
I00
I3
stRp2620
sg1349
I2
sg1350
F4
sbs(g571
g556
tp2621
g1
(g1340
g3
NtRp2622
(dp2623
g1343
F0.5
sg1344
I3
sg1345
g1346
((dp2624
I00
I3
stRp2625
sg1349
I2
sg1350
F4
sbs(g1021
g1003
tp2626
g1
(g1340
g3
NtRp2627
(dp2628
g1343
F0.5
sg1344
I3
sg1345
g1346
((dp2629
I00
I3
stRp2630
sg1349
I2
sg1350
F4
sbs(g346
g343
tp2631
g1
(g1340
g3
NtRp2632
(dp2633
g1343
F0.5
sg1344
I4
sg1345
g1346
((dp2634
I00
I4
stRp2635
sg1349
I1
sg1350
F4.5
sbs(g571
g560
tp2636
g1
(g1340
g3
NtRp2637
(dp2638
g1343
F0.5
sg1344
I3
sg1345
g1346
((dp2639
I00
I3
stRp2640
sg1349
I2
sg1350
F4
sbs(g740
g700
tp2641
g1
(g1340
g3
NtRp2642
(dp2643
g1343
F0.5
sg1344
I5
sg1345
g1346
((dp2644
I00
I5
stRp2645
sg1349
I2
sg1350
F6
sbs(g571
g525
tp2646
g1
(g1340
g3
NtRp2647
(dp2648
g1343
F0.5
sg1344
I3
sg1345
g1346
((dp2649
I00
I3
stRp2650
sg1349
I2
sg1350
F4
sbs(g571
g553
tp2651
g1
(g1340
g3
NtRp2652
(dp2653
g1343
F0.5
sg1344
I3
sg1345
g1346
((dp2654
I00
I3
stRp2655
sg1349
I2
sg1350
F4
sbs(g571
g531
tp2656
g1
(g1340
g3
NtRp2657
(dp2658
g1343
F0.5
sg1344
I3
sg1345
g1346
((dp2659
I00
I3
stRp2660
sg1349
I2
sg1350
F4
sbs(g740
g722
tp2661
g1
(g1340
g3
NtRp2662
(dp2663
g1343
F0.5
sg1344
I5
sg1345
g1346
((dp2664
I00
I3
sI01
I2
stRp2665
sg1349
I2
sg1350
F6
sbs(g346
g342
tp2666
g1
(g1340
g3
NtRp2667
(dp2668
g1343
F0.5
sg1344
I4
sg1345
g1346
((dp2669
I00
I4
stRp2670
sg1349
I2
sg1350
F5
sbs(g65
g42
tp2671
g1
(g1340
g3
NtRp2672
(dp2673
g1343
F0.5
sg1344
I8
sg1345
g1346
((dp2674
I00
I7
sI01
I1
stRp2675
sg1349
I2
sg1350
F9
sbs(g740
g738
tp2676
g1
(g1340
g3
NtRp2677
(dp2678
g1343
F0.5
sg1344
I5
sg1345
g1346
((dp2679
I00
I4
sI01
I1
stRp2680
sg1349
I2
sg1350
F6
sbs(g571
g562
tp2681
g1
(g1340
g3
NtRp2682
(dp2683
g1343
F0.5
sg1344
I3
sg1345
g1346
((dp2684
I00
I3
stRp2685
sg1349
I2
sg1350
F4
sbs(g65
g39
tp2686
g1
(g1340
g3
NtRp2687
(dp2688
g1343
F0.5
sg1344
I8
sg1345
g1346
((dp2689
I00
I8
stRp2690
sg1349
I2
sg1350
F9
sbs(g346
g297
tp2691
g1
(g1340
g3
NtRp2692
(dp2693
g1343
F0.5
sg1344
I4
sg1345
g1346
((dp2694
I00
I4
stRp2695
sg1349
I2
sg1350
F5
sbssS'_label_probdist'
p2696
g1
(g1340
g3
NtRp2697
(dp2698
g1343
F0.5
sg1344
I23
sg1345
g1346
((dp2699
g1021
I3
sg346
I4
sg740
I5
sg65
I8
sg571
I3
stRp2700
sg1349
I5
sg1350
F25.5
sbsbsb.